
ucosii.om:     file format elf32-tradbigmips


Disassembly of section .vectors:

00000000 <_reset>:
   0:	3c1c0000 	lui	gp,0x0
   4:	3c1d0002 	lui	sp,0x2
   8:	27bd8e20 	addiu	sp,sp,-29152
   c:	3c1a0000 	lui	k0,0x0
  10:	275a723c 	addiu	k0,k0,29244
  14:	03400008 	jr	k0
  18:	00000000 	nop
  1c:	00000000 	nop
  20:	3c1a0000 	lui	k0,0x0
  24:	275a6e90 	addiu	k0,k0,28304
  28:	03400008 	jr	k0
  2c:	00000000 	nop
	...
  40:	3c1a0000 	lui	k0,0x0
  44:	275a7040 	addiu	k0,k0,28736
  48:	03400008 	jr	k0
  4c:	00000000 	nop
  50:	00000000 	nop

Disassembly of section .text:

00000080 <uart_putc>:
      80:	308400ff 	andi	a0,a0,0xff
      84:	3c021000 	lui	v0,0x1000
      88:	90430005 	lbu	v1,5(v0)
      8c:	30630020 	andi	v1,v1,0x20
      90:	1060fffd 	beqz	v1,88 <STK_OFFSET_GPR31>
      94:	00000000 	nop
      98:	a0440000 	sb	a0,0(v0)
      9c:	2402000a 	li	v0,10
      a0:	10820008 	beq	a0,v0,c4 <STK_CTX_SIZE+0x38>
      a4:	3c041000 	lui	a0,0x1000
      a8:	24030060 	li	v1,96
      ac:	90820005 	lbu	v0,5(a0)
      b0:	30420060 	andi	v0,v0,0x60
      b4:	1443fffd 	bne	v0,v1,ac <STK_CTX_SIZE+0x20>
      b8:	00000000 	nop
      bc:	03e00008 	jr	ra
      c0:	00000000 	nop
      c4:	3c031000 	lui	v1,0x1000
      c8:	90620005 	lbu	v0,5(v1)
      cc:	30420020 	andi	v0,v0,0x20
      d0:	1040fffd 	beqz	v0,c8 <STK_CTX_SIZE+0x3c>
      d4:	3c041000 	lui	a0,0x1000
      d8:	0800002b 	j	ac <STK_CTX_SIZE+0x20>
      dc:	24030060 	li	v1,96

000000e0 <TaskStart>:
      e0:	27bdffc8 	addiu	sp,sp,-56
      e4:	00001021 	move	v0,zero
      e8:	afbf0034 	sw	ra,52(sp)
      ec:	afb70030 	sw	s7,48(sp)
      f0:	afb6002c 	sw	s6,44(sp)
      f4:	afb50028 	sw	s5,40(sp)
      f8:	afb40024 	sw	s4,36(sp)
      fc:	afb30020 	sw	s3,32(sp)
     100:	afb2001c 	sw	s2,28(sp)
     104:	afb10018 	sw	s1,24(sp)
     108:	afb00014 	sw	s0,20(sp)
     10c:	40824800 	mtc0	v0,c0_count
     110:	3c020007 	lui	v0,0x7
     114:	3442a120 	ori	v0,v0,0xa120
     118:	40825800 	mtc0	v0,c0_compare
     11c:	3c021000 	lui	v0,0x1000
     120:	24420401 	addiu	v0,v0,1025
     124:	40826000 	mtc0	v0,c0_status
     128:	3c150000 	lui	s5,0x0
     12c:	3c120000 	lui	s2,0x0
     130:	3c17cccc 	lui	s7,0xcccc
     134:	24130001 	li	s3,1
     138:	00008021 	move	s0,zero
     13c:	26b574d0 	addiu	s5,s5,29904
     140:	265272a8 	addiu	s2,s2,29352
     144:	36f7cccd 	ori	s7,s7,0xcccd
     148:	24160009 	li	s6,9
     14c:	24110002 	li	s1,2
     150:	16600033 	bnez	s3,220 <TaskStart+0x140>
     154:	24140004 	li	s4,4
     158:	02001821 	move	v1,s0
     15c:	02170019 	multu	s0,s7
     160:	24050001 	li	a1,1
     164:	00003010 	mfhi	a2
     168:	00003821 	move	a3,zero
     16c:	000610c2 	srl	v0,a2,0x3
     170:	00024040 	sll	t0,v0,0x1
     174:	000210c0 	sll	v0,v0,0x3
     178:	01021021 	addu	v0,t0,v0
     17c:	00621023 	subu	v0,v1,v0
     180:	24090001 	li	t1,1
     184:	24a4ffff 	addiu	a0,a1,-1
     188:	10560016 	beq	v0,s6,1e4 <TaskStart+0x104>
     18c:	000618c2 	srl	v1,a2,0x3
     190:	00021080 	sll	v0,v0,0x2
     194:	02421021 	addu	v0,s2,v0
     198:	10890014 	beq	a0,t1,1ec <TaskStart+0x10c>
     19c:	8c420000 	lw	v0,0(v0)
     1a0:	10800013 	beqz	a0,1f0 <TaskStart+0x110>
     1a4:	00000000 	nop
     1a8:	14910014 	bne	a0,s1,1fc <TaskStart+0x11c>
     1ac:	00000000 	nop
     1b0:	00021400 	sll	v0,v0,0x10
     1b4:	00e23821 	addu	a3,a3,v0
     1b8:	24a50001 	addiu	a1,a1,1
     1bc:	00770019 	multu	v1,s7
     1c0:	24a4ffff 	addiu	a0,a1,-1
     1c4:	00003010 	mfhi	a2
     1c8:	000610c2 	srl	v0,a2,0x3
     1cc:	00024040 	sll	t0,v0,0x1
     1d0:	000210c0 	sll	v0,v0,0x3
     1d4:	01021021 	addu	v0,t0,v0
     1d8:	00621023 	subu	v0,v1,v0
     1dc:	1456ffec 	bne	v0,s6,190 <TaskStart+0xb0>
     1e0:	000618c2 	srl	v1,a2,0x3
     1e4:	1489ffee 	bne	a0,t1,1a0 <TaskStart+0xc0>
     1e8:	24020090 	li	v0,144
     1ec:	00021200 	sll	v0,v0,0x8
     1f0:	00e23821 	addu	a3,a3,v0
     1f4:	0800006f 	j	1bc <TaskStart+0xdc>
     1f8:	24a50001 	addiu	a1,a1,1
     1fc:	00021600 	sll	v0,v0,0x18
     200:	14b4ffed 	bne	a1,s4,1b8 <TaskStart+0xd8>
     204:	00e23821 	addu	a3,a3,v0
     208:	3c022000 	lui	v0,0x2000
     20c:	ac470004 	sw	a3,4(v0)
     210:	0c00125d 	jal	4974 <OSTimeDly>
     214:	2404000a 	li	a0,10
     218:	1260ffcf 	beqz	s3,158 <TaskStart+0x78>
     21c:	00000000 	nop
     220:	02b01021 	addu	v0,s5,s0
     224:	90440000 	lbu	a0,0(v0)
     228:	0c000020 	jal	80 <uart_putc>
     22c:	26100001 	addiu	s0,s0,1
     230:	08000056 	j	158 <TaskStart+0x78>
     234:	2e130175 	sltiu	s3,s0,373

00000238 <uart_print_str>:
     238:	27bdffe0 	addiu	sp,sp,-32
     23c:	afb00018 	sw	s0,24(sp)
     240:	afbf001c 	sw	ra,28(sp)
     244:	0c001b9b 	jal	6e6c <OS_CPU_SR_Save>
     248:	00808021 	move	s0,a0
     24c:	92040000 	lbu	a0,0(s0)
     250:	afa20010 	sw	v0,16(sp)
     254:	10800006 	beqz	a0,270 <uart_print_str+0x38>
     258:	26050001 	addiu	a1,s0,1
     25c:	0c000020 	jal	80 <uart_putc>
     260:	24a50001 	addiu	a1,a1,1
     264:	90a4ffff 	lbu	a0,-1(a1)
     268:	1480fffc 	bnez	a0,25c <uart_print_str+0x24>
     26c:	00000000 	nop
     270:	8fa40010 	lw	a0,16(sp)
     274:	0c001ba2 	jal	6e88 <OS_CPU_SR_Restore>
     278:	00000000 	nop
     27c:	8fbf001c 	lw	ra,28(sp)
     280:	8fb00018 	lw	s0,24(sp)
     284:	03e00008 	jr	ra
     288:	27bd0020 	addiu	sp,sp,32

0000028c <uart_init>:
     28c:	3c021000 	lui	v0,0x1000
     290:	2403ff80 	li	v1,-128
     294:	a0430003 	sb	v1,3(v0)
     298:	24030045 	li	v1,69
     29c:	a0430000 	sb	v1,0(v0)
     2a0:	24030001 	li	v1,1
     2a4:	a0430001 	sb	v1,1(v0)
     2a8:	3c040000 	lui	a0,0x0
     2ac:	24030003 	li	v1,3
     2b0:	a0400003 	sb	zero,3(v0)
     2b4:	248473cc 	addiu	a0,a0,29644
     2b8:	a0400001 	sb	zero,1(v0)
     2bc:	a0430003 	sb	v1,3(v0)
     2c0:	0800008e 	j	238 <uart_print_str>
     2c4:	00000000 	nop

000002c8 <gpio_init>:
     2c8:	3c022000 	lui	v0,0x2000
     2cc:	2403ffff 	li	v1,-1
     2d0:	ac430008 	sw	v1,8(v0)
     2d4:	3c030f0f 	lui	v1,0xf0f
     2d8:	3c040000 	lui	a0,0x0
     2dc:	24630f0f 	addiu	v1,v1,3855
     2e0:	ac40000c 	sw	zero,12(v0)
     2e4:	248473e8 	addiu	a0,a0,29672
     2e8:	ac430004 	sw	v1,4(v0)
     2ec:	0800008e 	j	238 <uart_print_str>
     2f0:	00000000 	nop

000002f4 <gpio_out>:
     2f4:	3c022000 	lui	v0,0x2000
     2f8:	ac440004 	sw	a0,4(v0)
     2fc:	03e00008 	jr	ra
     300:	00000000 	nop

00000304 <gpio_in>:
     304:	3c022000 	lui	v0,0x2000
     308:	8c420000 	lw	v0,0(v0)
     30c:	03e00008 	jr	ra
     310:	00000000 	nop

00000314 <OSInitTick>:
     314:	00001021 	move	v0,zero
     318:	40824800 	mtc0	v0,c0_count
     31c:	3c020007 	lui	v0,0x7
     320:	3442a120 	ori	v0,v0,0xa120
     324:	40825800 	mtc0	v0,c0_compare
     328:	3c021000 	lui	v0,0x1000
     32c:	24420401 	addiu	v0,v0,1025
     330:	03e00008 	jr	ra
     334:	40826000 	mtc0	v0,c0_status

00000338 <OS_FlagBlock>:
     338:	8f8274b4 	lw	v0,29876(gp)
     33c:	90430034 	lbu	v1,52(v0)
     340:	a0400035 	sb	zero,53(v0)
     344:	34630020 	ori	v1,v1,0x20
     348:	a0430034 	sb	v1,52(v0)
     34c:	8fa30010 	lw	v1,16(sp)
     350:	ac450028 	sw	a1,40(v0)
     354:	ac430030 	sw	v1,48(v0)
     358:	a0a70012 	sb	a3,18(a1)
     35c:	8c830004 	lw	v1,4(a0)
     360:	a4a60010 	sh	a2,16(a1)
     364:	aca20008 	sw	v0,8(a1)
     368:	aca30000 	sw	v1,0(a1)
     36c:	aca00004 	sw	zero,4(a1)
     370:	10600002 	beqz	v1,37c <OS_FlagBlock+0x44>
     374:	aca4000c 	sw	a0,12(a1)
     378:	ac650004 	sw	a1,4(v1)
     37c:	ac850004 	sw	a1,4(a0)
     380:	90430038 	lbu	v1,56(v0)
     384:	278474a4 	addiu	a0,gp,29860
     388:	00832021 	addu	a0,a0,v1
     38c:	90430039 	lbu	v1,57(v0)
     390:	90850000 	lbu	a1,0(a0)
     394:	00031827 	nor	v1,zero,v1
     398:	00651824 	and	v1,v1,a1
     39c:	14600006 	bnez	v1,3b8 <OS_FlagBlock+0x80>
     3a0:	a0830000 	sb	v1,0(a0)
     3a4:	9042003a 	lbu	v0,58(v0)
     3a8:	938374a0 	lbu	v1,29856(gp)
     3ac:	00021027 	nor	v0,zero,v0
     3b0:	00431024 	and	v0,v0,v1
     3b4:	a38274a0 	sb	v0,29856(gp)
     3b8:	03e00008 	jr	ra
     3bc:	00000000 	nop

000003c0 <OS_FlagTaskRdy>:
     3c0:	8c820008 	lw	v0,8(a0)
     3c4:	90430034 	lbu	v1,52(v0)
     3c8:	ac400030 	sw	zero,48(v0)
     3cc:	306300df 	andi	v1,v1,0xdf
     3d0:	a445002c 	sh	a1,44(v0)
     3d4:	a0430034 	sb	v1,52(v0)
     3d8:	14600016 	bnez	v1,434 <OS_FlagTaskRdy+0x74>
     3dc:	a0400035 	sb	zero,53(v0)
     3e0:	90430038 	lbu	v1,56(v0)
     3e4:	278574a4 	addiu	a1,gp,29860
     3e8:	00a31821 	addu	v1,a1,v1
     3ec:	90660000 	lbu	a2,0(v1)
     3f0:	9045003a 	lbu	a1,58(v0)
     3f4:	90420039 	lbu	v0,57(v0)
     3f8:	938774a0 	lbu	a3,29856(gp)
     3fc:	00c21025 	or	v0,a2,v0
     400:	a0620000 	sb	v0,0(v1)
     404:	00e52825 	or	a1,a3,a1
     408:	a38574a0 	sb	a1,29856(gp)
     40c:	8c850004 	lw	a1,4(a0)
     410:	24020001 	li	v0,1
     414:	10a0000b 	beqz	a1,444 <OS_FlagTaskRdy+0x84>
     418:	8c830000 	lw	v1,0(a0)
     41c:	10600002 	beqz	v1,428 <OS_FlagTaskRdy+0x68>
     420:	aca30000 	sw	v1,0(a1)
     424:	ac650004 	sw	a1,4(v1)
     428:	8c830008 	lw	v1,8(a0)
     42c:	03e00008 	jr	ra
     430:	ac600028 	sw	zero,40(v1)
     434:	8c850004 	lw	a1,4(a0)
     438:	00001021 	move	v0,zero
     43c:	14a0fff7 	bnez	a1,41c <OS_FlagTaskRdy+0x5c>
     440:	8c830000 	lw	v1,0(a0)
     444:	8c85000c 	lw	a1,12(a0)
     448:	1060fff7 	beqz	v1,428 <OS_FlagTaskRdy+0x68>
     44c:	aca30004 	sw	v1,4(a1)
     450:	ac600004 	sw	zero,4(v1)
     454:	8c830008 	lw	v1,8(a0)
     458:	03e00008 	jr	ra
     45c:	ac600028 	sw	zero,40(v1)

00000460 <OSFlagAccept>:
     460:	27bdffc8 	addiu	sp,sp,-56
     464:	afb10028 	sw	s1,40(sp)
     468:	afb00024 	sw	s0,36(sp)
     46c:	afbf0034 	sw	ra,52(sp)
     470:	afb30030 	sw	s3,48(sp)
     474:	afb2002c 	sw	s2,44(sp)
     478:	90830000 	lbu	v1,0(a0)
     47c:	30d000ff 	andi	s0,a2,0xff
     480:	24060005 	li	a2,5
     484:	30b1ffff 	andi	s1,a1,0xffff
     488:	afa00010 	sw	zero,16(sp)
     48c:	1066000a 	beq	v1,a2,4b8 <OSFlagAccept+0x58>
     490:	24020001 	li	v0,1
     494:	a0e20000 	sb	v0,0(a3)
     498:	00001021 	move	v0,zero
     49c:	8fbf0034 	lw	ra,52(sp)
     4a0:	8fb30030 	lw	s3,48(sp)
     4a4:	8fb2002c 	lw	s2,44(sp)
     4a8:	8fb10028 	lw	s1,40(sp)
     4ac:	8fb00024 	lw	s0,36(sp)
     4b0:	03e00008 	jr	ra
     4b4:	27bd0038 	addiu	sp,sp,56
     4b8:	32020080 	andi	v0,s0,0x80
     4bc:	1440001a 	bnez	v0,528 <OSFlagAccept+0xc8>
     4c0:	00000000 	nop
     4c4:	00009021 	move	s2,zero
     4c8:	a0e00000 	sb	zero,0(a3)
     4cc:	afa40018 	sw	a0,24(sp)
     4d0:	0c001b9b 	jal	6e6c <OS_CPU_SR_Save>
     4d4:	afa7001c 	sw	a3,28(sp)
     4d8:	24030001 	li	v1,1
     4dc:	afa20010 	sw	v0,16(sp)
     4e0:	8fa40018 	lw	a0,24(sp)
     4e4:	12030035 	beq	s0,v1,5bc <OSFlagAccept+0x15c>
     4e8:	8fa7001c 	lw	a3,28(sp)
     4ec:	1200002a 	beqz	s0,598 <OSFlagAccept+0x138>
     4f0:	24020002 	li	v0,2
     4f4:	12020017 	beq	s0,v0,554 <OSFlagAccept+0xf4>
     4f8:	24020003 	li	v0,3
     4fc:	1602000d 	bne	s0,v0,534 <OSFlagAccept+0xd4>
     500:	00000000 	nop
     504:	94820008 	lhu	v0,8(a0)
     508:	02228824 	and	s1,s1,v0
     50c:	1220003a 	beqz	s1,5f8 <OSFlagAccept+0x198>
     510:	00000000 	nop
     514:	1643003a 	bne	s2,v1,600 <OSFlagAccept+0x1a0>
     518:	00111827 	nor	v1,zero,s1
     51c:	00431024 	and	v0,v0,v1
     520:	08000180 	j	600 <OSFlagAccept+0x1a0>
     524:	a4820008 	sh	v0,8(a0)
     528:	3210007f 	andi	s0,s0,0x7f
     52c:	08000132 	j	4c8 <OSFlagAccept+0x68>
     530:	24120001 	li	s2,1
     534:	8fa40010 	lw	a0,16(sp)
     538:	0c001ba2 	jal	6e88 <OS_CPU_SR_Restore>
     53c:	afa7001c 	sw	a3,28(sp)
     540:	8fa7001c 	lw	a3,28(sp)
     544:	2402006f 	li	v0,111
     548:	a0e20000 	sb	v0,0(a3)
     54c:	08000127 	j	49c <OSFlagAccept+0x3c>
     550:	00001021 	move	v0,zero
     554:	94820008 	lhu	v0,8(a0)
     558:	02228024 	and	s0,s1,v0
     55c:	1211002d 	beq	s0,s1,614 <OSFlagAccept+0x1b4>
     560:	00000000 	nop
     564:	24020070 	li	v0,112
     568:	a0e20000 	sb	v0,0(a3)
     56c:	8fa40010 	lw	a0,16(sp)
     570:	0c001ba2 	jal	6e88 <OS_CPU_SR_Restore>
     574:	00000000 	nop
     578:	8fbf0034 	lw	ra,52(sp)
     57c:	02001021 	move	v0,s0
     580:	8fb30030 	lw	s3,48(sp)
     584:	8fb2002c 	lw	s2,44(sp)
     588:	8fb10028 	lw	s1,40(sp)
     58c:	8fb00024 	lw	s0,36(sp)
     590:	03e00008 	jr	ra
     594:	27bd0038 	addiu	sp,sp,56
     598:	94850008 	lhu	a1,8(a0)
     59c:	00058027 	nor	s0,zero,a1
     5a0:	02308024 	and	s0,s1,s0
     5a4:	1611fff0 	bne	s0,s1,568 <OSFlagAccept+0x108>
     5a8:	24020070 	li	v0,112
     5ac:	1643ffef 	bne	s2,v1,56c <OSFlagAccept+0x10c>
     5b0:	00b12825 	or	a1,a1,s1
     5b4:	0800015b 	j	56c <OSFlagAccept+0x10c>
     5b8:	a4850008 	sh	a1,8(a0)
     5bc:	94830008 	lhu	v1,8(a0)
     5c0:	00039827 	nor	s3,zero,v1
     5c4:	02339824 	and	s3,s1,s3
     5c8:	12600005 	beqz	s3,5e0 <OSFlagAccept+0x180>
     5cc:	24020070 	li	v0,112
     5d0:	16500004 	bne	s2,s0,5e4 <OSFlagAccept+0x184>
     5d4:	02231825 	or	v1,s1,v1
     5d8:	08000179 	j	5e4 <OSFlagAccept+0x184>
     5dc:	a4830008 	sh	v1,8(a0)
     5e0:	a0e20000 	sb	v0,0(a3)
     5e4:	8fa40010 	lw	a0,16(sp)
     5e8:	0c001ba2 	jal	6e88 <OS_CPU_SR_Restore>
     5ec:	00000000 	nop
     5f0:	08000127 	j	49c <OSFlagAccept+0x3c>
     5f4:	02601021 	move	v0,s3
     5f8:	24020070 	li	v0,112
     5fc:	a0e20000 	sb	v0,0(a3)
     600:	8fa40010 	lw	a0,16(sp)
     604:	0c001ba2 	jal	6e88 <OS_CPU_SR_Restore>
     608:	00000000 	nop
     60c:	08000127 	j	49c <OSFlagAccept+0x3c>
     610:	02201021 	move	v0,s1
     614:	1643ffd5 	bne	s2,v1,56c <OSFlagAccept+0x10c>
     618:	00118827 	nor	s1,zero,s1
     61c:	00511024 	and	v0,v0,s1
     620:	0800015b 	j	56c <OSFlagAccept+0x10c>
     624:	a4820008 	sh	v0,8(a0)

00000628 <OSFlagCreate>:
     628:	938274b0 	lbu	v0,29872(gp)
     62c:	27bdffd8 	addiu	sp,sp,-40
     630:	afb20020 	sw	s2,32(sp)
     634:	afb1001c 	sw	s1,28(sp)
     638:	afbf0024 	sw	ra,36(sp)
     63c:	afb00018 	sw	s0,24(sp)
     640:	00a08821 	move	s1,a1
     644:	3092ffff 	andi	s2,a0,0xffff
     648:	afa00010 	sw	zero,16(sp)
     64c:	1440001a 	bnez	v0,6b8 <OSFlagCreate+0x90>
     650:	8fbf0024 	lw	ra,36(sp)
     654:	0c001b9b 	jal	6e6c <OS_CPU_SR_Save>
     658:	00000000 	nop
     65c:	8f9074c4 	lw	s0,29892(gp)
     660:	afa20010 	sw	v0,16(sp)
     664:	1200001c 	beqz	s0,6d8 <OSFlagCreate+0xb0>
     668:	00000000 	nop
     66c:	8e020004 	lw	v0,4(s0)
     670:	8fa40010 	lw	a0,16(sp)
     674:	af8274c4 	sw	v0,29892(gp)
     678:	24020005 	li	v0,5
     67c:	a2020000 	sb	v0,0(s0)
     680:	3c020000 	lui	v0,0x0
     684:	24427404 	addiu	v0,v0,29700
     688:	a6120008 	sh	s2,8(s0)
     68c:	ae02000c 	sw	v0,12(s0)
     690:	0c001ba2 	jal	6e88 <OS_CPU_SR_Restore>
     694:	ae000004 	sw	zero,4(s0)
     698:	a2200000 	sb	zero,0(s1)
     69c:	8fbf0024 	lw	ra,36(sp)
     6a0:	02001021 	move	v0,s0
     6a4:	8fb20020 	lw	s2,32(sp)
     6a8:	8fb1001c 	lw	s1,28(sp)
     6ac:	8fb00018 	lw	s0,24(sp)
     6b0:	03e00008 	jr	ra
     6b4:	27bd0028 	addiu	sp,sp,40
     6b8:	24020010 	li	v0,16
     6bc:	8fb20020 	lw	s2,32(sp)
     6c0:	8fb1001c 	lw	s1,28(sp)
     6c4:	8fb00018 	lw	s0,24(sp)
     6c8:	a0a20000 	sb	v0,0(a1)
     6cc:	00001021 	move	v0,zero
     6d0:	03e00008 	jr	ra
     6d4:	27bd0028 	addiu	sp,sp,40
     6d8:	8fa40010 	lw	a0,16(sp)
     6dc:	0c001ba2 	jal	6e88 <OS_CPU_SR_Restore>
     6e0:	00000000 	nop
     6e4:	24020072 	li	v0,114
     6e8:	a2220000 	sb	v0,0(s1)
     6ec:	8fbf0024 	lw	ra,36(sp)
     6f0:	8fb20020 	lw	s2,32(sp)
     6f4:	8fb1001c 	lw	s1,28(sp)
     6f8:	8fb00018 	lw	s0,24(sp)
     6fc:	00001021 	move	v0,zero
     700:	03e00008 	jr	ra
     704:	27bd0028 	addiu	sp,sp,40

00000708 <OSFlagDel>:
     708:	938274b0 	lbu	v0,29872(gp)
     70c:	27bdffd0 	addiu	sp,sp,-48
     710:	afb20024 	sw	s2,36(sp)
     714:	afb10020 	sw	s1,32(sp)
     718:	afb0001c 	sw	s0,28(sp)
     71c:	afbf002c 	sw	ra,44(sp)
     720:	afb30028 	sw	s3,40(sp)
     724:	00808021 	move	s0,a0
     728:	00c08821 	move	s1,a2
     72c:	30b200ff 	andi	s2,a1,0xff
     730:	afa00010 	sw	zero,16(sp)
     734:	1440000d 	bnez	v0,76c <OSFlagDel+0x64>
     738:	24020005 	li	v0,5
     73c:	90830000 	lbu	v1,0(a0)
     740:	10620014 	beq	v1,v0,794 <OSFlagDel+0x8c>
     744:	24020001 	li	v0,1
     748:	a0c20000 	sb	v0,0(a2)
     74c:	8fbf002c 	lw	ra,44(sp)
     750:	02001021 	move	v0,s0
     754:	8fb30028 	lw	s3,40(sp)
     758:	8fb20024 	lw	s2,36(sp)
     75c:	8fb10020 	lw	s1,32(sp)
     760:	8fb0001c 	lw	s0,28(sp)
     764:	03e00008 	jr	ra
     768:	27bd0030 	addiu	sp,sp,48
     76c:	8fbf002c 	lw	ra,44(sp)
     770:	2402000f 	li	v0,15
     774:	8fb30028 	lw	s3,40(sp)
     778:	8fb20024 	lw	s2,36(sp)
     77c:	8fb10020 	lw	s1,32(sp)
     780:	a0c20000 	sb	v0,0(a2)
     784:	02001021 	move	v0,s0
     788:	8fb0001c 	lw	s0,28(sp)
     78c:	03e00008 	jr	ra
     790:	27bd0030 	addiu	sp,sp,48
     794:	0c001b9b 	jal	6e6c <OS_CPU_SR_Save>
     798:	00000000 	nop
     79c:	8e080004 	lw	t0,4(s0)
     7a0:	afa20010 	sw	v0,16(sp)
     7a4:	12400025 	beqz	s2,83c <OSFlagDel+0x134>
     7a8:	0008982b 	sltu	s3,zero,t0
     7ac:	24020001 	li	v0,1
     7b0:	16420018 	bne	s2,v0,814 <OSFlagDel+0x10c>
     7b4:	00000000 	nop
     7b8:	12600008 	beqz	s3,7dc <OSFlagDel+0xd4>
     7bc:	3c020000 	lui	v0,0x0
     7c0:	01002021 	move	a0,t0
     7c4:	0c0000f0 	jal	3c0 <OS_FlagTaskRdy>
     7c8:	00002821 	move	a1,zero
     7cc:	8d080000 	lw	t0,0(t0)
     7d0:	1500fffc 	bnez	t0,7c4 <OSFlagDel+0xbc>
     7d4:	01002021 	move	a0,t0
     7d8:	3c020000 	lui	v0,0x0
     7dc:	a2000000 	sb	zero,0(s0)
     7e0:	24427404 	addiu	v0,v0,29700
     7e4:	ae02000c 	sw	v0,12(s0)
     7e8:	8f8274c4 	lw	v0,29892(gp)
     7ec:	8fa40010 	lw	a0,16(sp)
     7f0:	ae020004 	sw	v0,4(s0)
     7f4:	a6000008 	sh	zero,8(s0)
     7f8:	0c001ba2 	jal	6e88 <OS_CPU_SR_Restore>
     7fc:	af9074c4 	sw	s0,29892(gp)
     800:	1660000a 	bnez	s3,82c <OSFlagDel+0x124>
     804:	00000000 	nop
     808:	a2200000 	sb	zero,0(s1)
     80c:	080001d3 	j	74c <OSFlagDel+0x44>
     810:	00008021 	move	s0,zero
     814:	8fa40010 	lw	a0,16(sp)
     818:	0c001ba2 	jal	6e88 <OS_CPU_SR_Restore>
     81c:	00000000 	nop
     820:	24020007 	li	v0,7
     824:	080001d3 	j	74c <OSFlagDel+0x44>
     828:	a2220000 	sb	v0,0(s1)
     82c:	0c001883 	jal	620c <OS_Sched>
     830:	00008021 	move	s0,zero
     834:	080001d3 	j	74c <OSFlagDel+0x44>
     838:	a2200000 	sb	zero,0(s1)
     83c:	1660000d 	bnez	s3,874 <OSFlagDel+0x16c>
     840:	3c020000 	lui	v0,0x0
     844:	a2000000 	sb	zero,0(s0)
     848:	24427404 	addiu	v0,v0,29700
     84c:	ae02000c 	sw	v0,12(s0)
     850:	8f8274c4 	lw	v0,29892(gp)
     854:	8fa40010 	lw	a0,16(sp)
     858:	ae020004 	sw	v0,4(s0)
     85c:	a6000008 	sh	zero,8(s0)
     860:	0c001ba2 	jal	6e88 <OS_CPU_SR_Restore>
     864:	af9074c4 	sw	s0,29892(gp)
     868:	00008021 	move	s0,zero
     86c:	080001d3 	j	74c <OSFlagDel+0x44>
     870:	a2200000 	sb	zero,0(s1)
     874:	8fa40010 	lw	a0,16(sp)
     878:	0c001ba2 	jal	6e88 <OS_CPU_SR_Restore>
     87c:	00000000 	nop
     880:	24020049 	li	v0,73
     884:	080001d3 	j	74c <OSFlagDel+0x44>
     888:	a2220000 	sb	v0,0(s1)

0000088c <OSFlagNameGet>:
     88c:	938274b0 	lbu	v0,29872(gp)
     890:	27bdffd0 	addiu	sp,sp,-48
     894:	afb00024 	sw	s0,36(sp)
     898:	afbf002c 	sw	ra,44(sp)
     89c:	afb10028 	sw	s1,40(sp)
     8a0:	00c08021 	move	s0,a2
     8a4:	afa00010 	sw	zero,16(sp)
     8a8:	10400008 	beqz	v0,8cc <OSFlagNameGet+0x40>
     8ac:	8fbf002c 	lw	ra,44(sp)
     8b0:	24020011 	li	v0,17
     8b4:	8fb10028 	lw	s1,40(sp)
     8b8:	8fb00024 	lw	s0,36(sp)
     8bc:	a0c20000 	sb	v0,0(a2)
     8c0:	00001021 	move	v0,zero
     8c4:	03e00008 	jr	ra
     8c8:	27bd0030 	addiu	sp,sp,48
     8cc:	afa40018 	sw	a0,24(sp)
     8d0:	0c001b9b 	jal	6e6c <OS_CPU_SR_Save>
     8d4:	afa5001c 	sw	a1,28(sp)
     8d8:	8fa40018 	lw	a0,24(sp)
     8dc:	afa20010 	sw	v0,16(sp)
     8e0:	90830000 	lbu	v1,0(a0)
     8e4:	24020005 	li	v0,5
     8e8:	1062000c 	beq	v1,v0,91c <OSFlagNameGet+0x90>
     8ec:	8fa5001c 	lw	a1,28(sp)
     8f0:	8fa40010 	lw	a0,16(sp)
     8f4:	0c001ba2 	jal	6e88 <OS_CPU_SR_Restore>
     8f8:	00000000 	nop
     8fc:	24020001 	li	v0,1
     900:	a2020000 	sb	v0,0(s0)
     904:	8fbf002c 	lw	ra,44(sp)
     908:	8fb10028 	lw	s1,40(sp)
     90c:	8fb00024 	lw	s0,36(sp)
     910:	00001021 	move	v0,zero
     914:	03e00008 	jr	ra
     918:	27bd0030 	addiu	sp,sp,48
     91c:	8c82000c 	lw	v0,12(a0)
     920:	00402021 	move	a0,v0
     924:	0c0019d4 	jal	6750 <OS_StrLen>
     928:	aca20000 	sw	v0,0(a1)
     92c:	8fa40010 	lw	a0,16(sp)
     930:	0c001ba2 	jal	6e88 <OS_CPU_SR_Restore>
     934:	00408821 	move	s1,v0
     938:	a2000000 	sb	zero,0(s0)
     93c:	8fbf002c 	lw	ra,44(sp)
     940:	02201021 	move	v0,s1
     944:	8fb00024 	lw	s0,36(sp)
     948:	8fb10028 	lw	s1,40(sp)
     94c:	03e00008 	jr	ra
     950:	27bd0030 	addiu	sp,sp,48

00000954 <OSFlagNameSet>:
     954:	938274b0 	lbu	v0,29872(gp)
     958:	27bdffd8 	addiu	sp,sp,-40
     95c:	afb00020 	sw	s0,32(sp)
     960:	afbf0024 	sw	ra,36(sp)
     964:	00c08021 	move	s0,a2
     968:	afa00010 	sw	zero,16(sp)
     96c:	10400006 	beqz	v0,988 <OSFlagNameSet+0x34>
     970:	8fbf0024 	lw	ra,36(sp)
     974:	24020012 	li	v0,18
     978:	8fb00020 	lw	s0,32(sp)
     97c:	a0c20000 	sb	v0,0(a2)
     980:	03e00008 	jr	ra
     984:	27bd0028 	addiu	sp,sp,40
     988:	afa40018 	sw	a0,24(sp)
     98c:	0c001b9b 	jal	6e6c <OS_CPU_SR_Save>
     990:	afa5001c 	sw	a1,28(sp)
     994:	8fa40018 	lw	a0,24(sp)
     998:	afa20010 	sw	v0,16(sp)
     99c:	90830000 	lbu	v1,0(a0)
     9a0:	24020005 	li	v0,5
     9a4:	1062000a 	beq	v1,v0,9d0 <OSFlagNameSet+0x7c>
     9a8:	8fa5001c 	lw	a1,28(sp)
     9ac:	8fa40010 	lw	a0,16(sp)
     9b0:	0c001ba2 	jal	6e88 <OS_CPU_SR_Restore>
     9b4:	00000000 	nop
     9b8:	24020001 	li	v0,1
     9bc:	a2020000 	sb	v0,0(s0)
     9c0:	8fbf0024 	lw	ra,36(sp)
     9c4:	8fb00020 	lw	s0,32(sp)
     9c8:	03e00008 	jr	ra
     9cc:	27bd0028 	addiu	sp,sp,40
     9d0:	8fa20010 	lw	v0,16(sp)
     9d4:	ac85000c 	sw	a1,12(a0)
     9d8:	0c001ba2 	jal	6e88 <OS_CPU_SR_Restore>
     9dc:	00402021 	move	a0,v0
     9e0:	a2000000 	sb	zero,0(s0)
     9e4:	8fbf0024 	lw	ra,36(sp)
     9e8:	8fb00020 	lw	s0,32(sp)
     9ec:	03e00008 	jr	ra
     9f0:	27bd0028 	addiu	sp,sp,40

000009f4 <OSFlagPend>:
     9f4:	938274b0 	lbu	v0,29872(gp)
     9f8:	27bdffb0 	addiu	sp,sp,-80
     9fc:	afb20040 	sw	s2,64(sp)
     a00:	afb00038 	sw	s0,56(sp)
     a04:	afbf004c 	sw	ra,76(sp)
     a08:	afb40048 	sw	s4,72(sp)
     a0c:	afb30044 	sw	s3,68(sp)
     a10:	afb1003c 	sw	s1,60(sp)
     a14:	30b2ffff 	andi	s2,a1,0xffff
     a18:	30d000ff 	andi	s0,a2,0xff
     a1c:	afa0002c 	sw	zero,44(sp)
     a20:	1440001e 	bnez	v0,a9c <OSFlagPend+0xa8>
     a24:	93827464 	lbu	v0,29796(gp)
     a28:	14400010 	bnez	v0,a6c <OSFlagPend+0x78>
     a2c:	24020005 	li	v0,5
     a30:	90830000 	lbu	v1,0(a0)
     a34:	10620025 	beq	v1,v0,acc <OSFlagPend+0xd8>
     a38:	00808821 	move	s1,a0
     a3c:	8fa30060 	lw	v1,96(sp)
     a40:	24020001 	li	v0,1
     a44:	a0620000 	sb	v0,0(v1)
     a48:	00001021 	move	v0,zero
     a4c:	8fbf004c 	lw	ra,76(sp)
     a50:	8fb40048 	lw	s4,72(sp)
     a54:	8fb30044 	lw	s3,68(sp)
     a58:	8fb20040 	lw	s2,64(sp)
     a5c:	8fb1003c 	lw	s1,60(sp)
     a60:	8fb00038 	lw	s0,56(sp)
     a64:	03e00008 	jr	ra
     a68:	27bd0050 	addiu	sp,sp,80
     a6c:	8fa30060 	lw	v1,96(sp)
     a70:	2402000d 	li	v0,13
     a74:	a0620000 	sb	v0,0(v1)
     a78:	8fbf004c 	lw	ra,76(sp)
     a7c:	8fb40048 	lw	s4,72(sp)
     a80:	8fb30044 	lw	s3,68(sp)
     a84:	8fb20040 	lw	s2,64(sp)
     a88:	8fb1003c 	lw	s1,60(sp)
     a8c:	8fb00038 	lw	s0,56(sp)
     a90:	00001021 	move	v0,zero
     a94:	03e00008 	jr	ra
     a98:	27bd0050 	addiu	sp,sp,80
     a9c:	8fa30060 	lw	v1,96(sp)
     aa0:	24020002 	li	v0,2
     aa4:	a0620000 	sb	v0,0(v1)
     aa8:	8fbf004c 	lw	ra,76(sp)
     aac:	8fb40048 	lw	s4,72(sp)
     ab0:	8fb30044 	lw	s3,68(sp)
     ab4:	8fb20040 	lw	s2,64(sp)
     ab8:	8fb1003c 	lw	s1,60(sp)
     abc:	8fb00038 	lw	s0,56(sp)
     ac0:	00001021 	move	v0,zero
     ac4:	03e00008 	jr	ra
     ac8:	27bd0050 	addiu	sp,sp,80
     acc:	32020080 	andi	v0,s0,0x80
     ad0:	10400003 	beqz	v0,ae0 <OSFlagPend+0xec>
     ad4:	00009821 	move	s3,zero
     ad8:	3210007f 	andi	s0,s0,0x7f
     adc:	24130001 	li	s3,1
     ae0:	0c001b9b 	jal	6e6c <OS_CPU_SR_Save>
     ae4:	afa70030 	sw	a3,48(sp)
     ae8:	24030001 	li	v1,1
     aec:	afa2002c 	sw	v0,44(sp)
     af0:	12030039 	beq	s0,v1,bd8 <OSFlagPend+0x1e4>
     af4:	8fa70030 	lw	a3,48(sp)
     af8:	1200002d 	beqz	s0,bb0 <OSFlagPend+0x1bc>
     afc:	24020002 	li	v0,2
     b00:	1202001b 	beq	s0,v0,b70 <OSFlagPend+0x17c>
     b04:	24020003 	li	v0,3
     b08:	16020011 	bne	s0,v0,b50 <OSFlagPend+0x15c>
     b0c:	00000000 	nop
     b10:	96220008 	lhu	v0,8(s1)
     b14:	0242a024 	and	s4,s2,v0
     b18:	1280007a 	beqz	s4,d04 <OSFlagPend+0x310>
     b1c:	02202021 	move	a0,s1
     b20:	16630003 	bne	s3,v1,b30 <OSFlagPend+0x13c>
     b24:	00141827 	nor	v1,zero,s4
     b28:	00431024 	and	v0,v0,v1
     b2c:	a6220008 	sh	v0,8(s1)
     b30:	8f8274b4 	lw	v0,29876(gp)
     b34:	8fa4002c 	lw	a0,44(sp)
     b38:	0c001ba2 	jal	6e88 <OS_CPU_SR_Restore>
     b3c:	a454002c 	sh	s4,44(v0)
     b40:	8fa30060 	lw	v1,96(sp)
     b44:	02801021 	move	v0,s4
     b48:	08000293 	j	a4c <OSFlagPend+0x58>
     b4c:	a0600000 	sb	zero,0(v1)
     b50:	8fa4002c 	lw	a0,44(sp)
     b54:	0c001ba2 	jal	6e88 <OS_CPU_SR_Restore>
     b58:	00000000 	nop
     b5c:	8fa30060 	lw	v1,96(sp)
     b60:	2402006f 	li	v0,111
     b64:	a0620000 	sb	v0,0(v1)
     b68:	08000293 	j	a4c <OSFlagPend+0x58>
     b6c:	00001021 	move	v0,zero
     b70:	96220008 	lhu	v0,8(s1)
     b74:	0242a024 	and	s4,s2,v0
     b78:	16920054 	bne	s4,s2,ccc <OSFlagPend+0x2d8>
     b7c:	02202021 	move	a0,s1
     b80:	16630003 	bne	s3,v1,b90 <OSFlagPend+0x19c>
     b84:	00129027 	nor	s2,zero,s2
     b88:	00521024 	and	v0,v0,s2
     b8c:	a6220008 	sh	v0,8(s1)
     b90:	8f8274b4 	lw	v0,29876(gp)
     b94:	8fa4002c 	lw	a0,44(sp)
     b98:	0c001ba2 	jal	6e88 <OS_CPU_SR_Restore>
     b9c:	a454002c 	sh	s4,44(v0)
     ba0:	8fa20060 	lw	v0,96(sp)
     ba4:	a0400000 	sb	zero,0(v0)
     ba8:	08000293 	j	a4c <OSFlagPend+0x58>
     bac:	02801021 	move	v0,s4
     bb0:	96240008 	lhu	a0,8(s1)
     bb4:	0004a027 	nor	s4,zero,a0
     bb8:	0254a024 	and	s4,s2,s4
     bbc:	1692000f 	bne	s4,s2,bfc <OSFlagPend+0x208>
     bc0:	27a50018 	addiu	a1,sp,24
     bc4:	1663fff2 	bne	s3,v1,b90 <OSFlagPend+0x19c>
     bc8:	00000000 	nop
     bcc:	00922025 	or	a0,a0,s2
     bd0:	080002e4 	j	b90 <OSFlagPend+0x19c>
     bd4:	a6240008 	sh	a0,8(s1)
     bd8:	96230008 	lhu	v1,8(s1)
     bdc:	0003a027 	nor	s4,zero,v1
     be0:	0254a024 	and	s4,s2,s4
     be4:	12800051 	beqz	s4,d2c <OSFlagPend+0x338>
     be8:	02202021 	move	a0,s1
     bec:	1670ffd0 	bne	s3,s0,b30 <OSFlagPend+0x13c>
     bf0:	02431825 	or	v1,s2,v1
     bf4:	080002cc 	j	b30 <OSFlagPend+0x13c>
     bf8:	a6230008 	sh	v1,8(s1)
     bfc:	02202021 	move	a0,s1
     c00:	afa70010 	sw	a3,16(sp)
     c04:	02403021 	move	a2,s2
     c08:	0c0000ce 	jal	338 <OS_FlagBlock>
     c0c:	00003821 	move	a3,zero
     c10:	8fa4002c 	lw	a0,44(sp)
     c14:	0c001ba2 	jal	6e88 <OS_CPU_SR_Restore>
     c18:	00000000 	nop
     c1c:	0c001883 	jal	620c <OS_Sched>
     c20:	00000000 	nop
     c24:	0c001b9b 	jal	6e6c <OS_CPU_SR_Save>
     c28:	00000000 	nop
     c2c:	8f8374b4 	lw	v1,29876(gp)
     c30:	afa2002c 	sw	v0,44(sp)
     c34:	90720035 	lbu	s2,53(v1)
     c38:	12400013 	beqz	s2,c88 <OSFlagPend+0x294>
     c3c:	8fa4001c 	lw	a0,28(sp)
     c40:	a0600035 	sb	zero,53(v1)
     c44:	10800047 	beqz	a0,d64 <OSFlagPend+0x370>
     c48:	8fa20018 	lw	v0,24(sp)
     c4c:	10400002 	beqz	v0,c58 <OSFlagPend+0x264>
     c50:	ac820000 	sw	v0,0(a0)
     c54:	ac440004 	sw	a0,4(v0)
     c58:	8fa20020 	lw	v0,32(sp)
     c5c:	8fa4002c 	lw	a0,44(sp)
     c60:	ac400028 	sw	zero,40(v0)
     c64:	0c001ba2 	jal	6e88 <OS_CPU_SR_Restore>
     c68:	a0600034 	sb	zero,52(v1)
     c6c:	24020002 	li	v0,2
     c70:	16420020 	bne	s2,v0,cf4 <OSFlagPend+0x300>
     c74:	8fa30060 	lw	v1,96(sp)
     c78:	2402000e 	li	v0,14
     c7c:	a0620000 	sb	v0,0(v1)
     c80:	08000293 	j	a4c <OSFlagPend+0x58>
     c84:	00001021 	move	v0,zero
     c88:	12600009 	beqz	s3,cb0 <OSFlagPend+0x2bc>
     c8c:	9472002c 	lhu	s2,44(v1)
     c90:	2e020002 	sltiu	v0,s0,2
     c94:	1440002f 	bnez	v0,d54 <OSFlagPend+0x360>
     c98:	2e100004 	sltiu	s0,s0,4
     c9c:	1200ffac 	beqz	s0,b50 <OSFlagPend+0x15c>
     ca0:	00121827 	nor	v1,zero,s2
     ca4:	96220008 	lhu	v0,8(s1)
     ca8:	00621024 	and	v0,v1,v0
     cac:	a6220008 	sh	v0,8(s1)
     cb0:	8fa4002c 	lw	a0,44(sp)
     cb4:	0c001ba2 	jal	6e88 <OS_CPU_SR_Restore>
     cb8:	00000000 	nop
     cbc:	8fa20060 	lw	v0,96(sp)
     cc0:	a0400000 	sb	zero,0(v0)
     cc4:	08000293 	j	a4c <OSFlagPend+0x58>
     cc8:	02401021 	move	v0,s2
     ccc:	afa70010 	sw	a3,16(sp)
     cd0:	27a50018 	addiu	a1,sp,24
     cd4:	02403021 	move	a2,s2
     cd8:	0c0000ce 	jal	338 <OS_FlagBlock>
     cdc:	24070002 	li	a3,2
     ce0:	8fa4002c 	lw	a0,44(sp)
     ce4:	0c001ba2 	jal	6e88 <OS_CPU_SR_Restore>
     ce8:	00000000 	nop
     cec:	08000307 	j	c1c <OSFlagPend+0x228>
     cf0:	00000000 	nop
     cf4:	2402000a 	li	v0,10
     cf8:	a0620000 	sb	v0,0(v1)
     cfc:	08000293 	j	a4c <OSFlagPend+0x58>
     d00:	00001021 	move	v0,zero
     d04:	afa70010 	sw	a3,16(sp)
     d08:	27a50018 	addiu	a1,sp,24
     d0c:	02403021 	move	a2,s2
     d10:	0c0000ce 	jal	338 <OS_FlagBlock>
     d14:	24070003 	li	a3,3
     d18:	8fa4002c 	lw	a0,44(sp)
     d1c:	0c001ba2 	jal	6e88 <OS_CPU_SR_Restore>
     d20:	00000000 	nop
     d24:	08000307 	j	c1c <OSFlagPend+0x228>
     d28:	00000000 	nop
     d2c:	afa70010 	sw	a3,16(sp)
     d30:	27a50018 	addiu	a1,sp,24
     d34:	02403021 	move	a2,s2
     d38:	0c0000ce 	jal	338 <OS_FlagBlock>
     d3c:	24070001 	li	a3,1
     d40:	8fa4002c 	lw	a0,44(sp)
     d44:	0c001ba2 	jal	6e88 <OS_CPU_SR_Restore>
     d48:	00000000 	nop
     d4c:	08000307 	j	c1c <OSFlagPend+0x228>
     d50:	00000000 	nop
     d54:	96220008 	lhu	v0,8(s1)
     d58:	02421025 	or	v0,s2,v0
     d5c:	0800032c 	j	cb0 <OSFlagPend+0x2bc>
     d60:	a6220008 	sh	v0,8(s1)
     d64:	8fa40024 	lw	a0,36(sp)
     d68:	1040ffbb 	beqz	v0,c58 <OSFlagPend+0x264>
     d6c:	ac820004 	sw	v0,4(a0)
     d70:	08000316 	j	c58 <OSFlagPend+0x264>
     d74:	ac400004 	sw	zero,4(v0)

00000d78 <OSFlagPendGetFlagsRdy>:
     d78:	27bdffe0 	addiu	sp,sp,-32
     d7c:	afbf001c 	sw	ra,28(sp)
     d80:	afb00018 	sw	s0,24(sp)
     d84:	afa00010 	sw	zero,16(sp)
     d88:	0c001b9b 	jal	6e6c <OS_CPU_SR_Save>
     d8c:	00000000 	nop
     d90:	afa20010 	sw	v0,16(sp)
     d94:	8fa40010 	lw	a0,16(sp)
     d98:	8f8274b4 	lw	v0,29876(gp)
     d9c:	0c001ba2 	jal	6e88 <OS_CPU_SR_Restore>
     da0:	9450002c 	lhu	s0,44(v0)
     da4:	8fbf001c 	lw	ra,28(sp)
     da8:	02001021 	move	v0,s0
     dac:	8fb00018 	lw	s0,24(sp)
     db0:	03e00008 	jr	ra
     db4:	27bd0020 	addiu	sp,sp,32

00000db8 <OSFlagPost>:
     db8:	27bdffd0 	addiu	sp,sp,-48
     dbc:	afb30028 	sw	s3,40(sp)
     dc0:	afb20024 	sw	s2,36(sp)
     dc4:	afb10020 	sw	s1,32(sp)
     dc8:	afb0001c 	sw	s0,28(sp)
     dcc:	afbf002c 	sw	ra,44(sp)
     dd0:	90820000 	lbu	v0,0(a0)
     dd4:	24030005 	li	v1,5
     dd8:	00808021 	move	s0,a0
     ddc:	00e08821 	move	s1,a3
     de0:	30b3ffff 	andi	s3,a1,0xffff
     de4:	30d200ff 	andi	s2,a2,0xff
     de8:	afa00010 	sw	zero,16(sp)
     dec:	1043000a 	beq	v0,v1,e18 <OSFlagPost+0x60>
     df0:	24020001 	li	v0,1
     df4:	a0e20000 	sb	v0,0(a3)
     df8:	00001021 	move	v0,zero
     dfc:	8fbf002c 	lw	ra,44(sp)
     e00:	8fb30028 	lw	s3,40(sp)
     e04:	8fb20024 	lw	s2,36(sp)
     e08:	8fb10020 	lw	s1,32(sp)
     e0c:	8fb0001c 	lw	s0,28(sp)
     e10:	03e00008 	jr	ra
     e14:	27bd0030 	addiu	sp,sp,48
     e18:	0c001b9b 	jal	6e6c <OS_CPU_SR_Save>
     e1c:	00000000 	nop
     e20:	afa20010 	sw	v0,16(sp)
     e24:	1240005b 	beqz	s2,f94 <OSFlagPost+0x1dc>
     e28:	24020001 	li	v0,1
     e2c:	16420052 	bne	s2,v0,f78 <OSFlagPost+0x1c0>
     e30:	00000000 	nop
     e34:	96020008 	lhu	v0,8(s0)
     e38:	02629825 	or	s3,s3,v0
     e3c:	a6130008 	sh	s3,8(s0)
     e40:	8e080004 	lw	t0,4(s0)
     e44:	11000058 	beqz	t0,fa8 <OSFlagPost+0x1f0>
     e48:	00009021 	move	s2,zero
     e4c:	24090001 	li	t1,1
     e50:	240a0002 	li	t2,2
     e54:	240b0003 	li	t3,3
     e58:	91020012 	lbu	v0,18(t0)
     e5c:	1049001e 	beq	v0,t1,ed8 <OSFlagPost+0x120>
     e60:	00000000 	nop
     e64:	1040003c 	beqz	v0,f58 <OSFlagPost+0x1a0>
     e68:	00000000 	nop
     e6c:	104a0033 	beq	v0,t2,f3c <OSFlagPost+0x184>
     e70:	00000000 	nop
     e74:	144b0024 	bne	v0,t3,f08 <OSFlagPost+0x150>
     e78:	00000000 	nop
     e7c:	96020008 	lhu	v0,8(s0)
     e80:	95050010 	lhu	a1,16(t0)
     e84:	00a22824 	and	a1,a1,v0
     e88:	14a00019 	bnez	a1,ef0 <OSFlagPost+0x138>
     e8c:	00000000 	nop
     e90:	8d080000 	lw	t0,0(t0)
     e94:	1500fff0 	bnez	t0,e58 <OSFlagPost+0xa0>
     e98:	00000000 	nop
     e9c:	8fa40010 	lw	a0,16(sp)
     ea0:	0c001ba2 	jal	6e88 <OS_CPU_SR_Restore>
     ea4:	00000000 	nop
     ea8:	16400044 	bnez	s2,fbc <OSFlagPost+0x204>
     eac:	00000000 	nop
     eb0:	0c001b9b 	jal	6e6c <OS_CPU_SR_Save>
     eb4:	00000000 	nop
     eb8:	afa20010 	sw	v0,16(sp)
     ebc:	96100008 	lhu	s0,8(s0)
     ec0:	8fa40010 	lw	a0,16(sp)
     ec4:	0c001ba2 	jal	6e88 <OS_CPU_SR_Restore>
     ec8:	00000000 	nop
     ecc:	a2200000 	sb	zero,0(s1)
     ed0:	0800037f 	j	dfc <OSFlagPost+0x44>
     ed4:	02001021 	move	v0,s0
     ed8:	96050008 	lhu	a1,8(s0)
     edc:	95020010 	lhu	v0,16(t0)
     ee0:	00052827 	nor	a1,zero,a1
     ee4:	00a22824 	and	a1,a1,v0
     ee8:	10a0ffe9 	beqz	a1,e90 <OSFlagPost+0xd8>
     eec:	00000000 	nop
     ef0:	0c0000f0 	jal	3c0 <OS_FlagTaskRdy>
     ef4:	01002021 	move	a0,t0
     ef8:	1449ffe5 	bne	v0,t1,e90 <OSFlagPost+0xd8>
     efc:	00000000 	nop
     f00:	080003a4 	j	e90 <OSFlagPost+0xd8>
     f04:	24120001 	li	s2,1
     f08:	8fa40010 	lw	a0,16(sp)
     f0c:	0c001ba2 	jal	6e88 <OS_CPU_SR_Restore>
     f10:	00000000 	nop
     f14:	2402006f 	li	v0,111
     f18:	a2220000 	sb	v0,0(s1)
     f1c:	8fbf002c 	lw	ra,44(sp)
     f20:	8fb30028 	lw	s3,40(sp)
     f24:	8fb20024 	lw	s2,36(sp)
     f28:	8fb10020 	lw	s1,32(sp)
     f2c:	8fb0001c 	lw	s0,28(sp)
     f30:	00001021 	move	v0,zero
     f34:	03e00008 	jr	ra
     f38:	27bd0030 	addiu	sp,sp,48
     f3c:	95050010 	lhu	a1,16(t0)
     f40:	96020008 	lhu	v0,8(s0)
     f44:	00a21024 	and	v0,a1,v0
     f48:	14a2ffd1 	bne	a1,v0,e90 <OSFlagPost+0xd8>
     f4c:	00000000 	nop
     f50:	080003bc 	j	ef0 <OSFlagPost+0x138>
     f54:	00000000 	nop
     f58:	96020008 	lhu	v0,8(s0)
     f5c:	95050010 	lhu	a1,16(t0)
     f60:	00021027 	nor	v0,zero,v0
     f64:	00a21024 	and	v0,a1,v0
     f68:	14a2ffc9 	bne	a1,v0,e90 <OSFlagPost+0xd8>
     f6c:	00000000 	nop
     f70:	080003bc 	j	ef0 <OSFlagPost+0x138>
     f74:	00000000 	nop
     f78:	8fa40010 	lw	a0,16(sp)
     f7c:	0c001ba2 	jal	6e88 <OS_CPU_SR_Restore>
     f80:	00000000 	nop
     f84:	24020071 	li	v0,113
     f88:	a2220000 	sb	v0,0(s1)
     f8c:	0800037f 	j	dfc <OSFlagPost+0x44>
     f90:	00001021 	move	v0,zero
     f94:	96020008 	lhu	v0,8(s0)
     f98:	00139827 	nor	s3,zero,s3
     f9c:	02629824 	and	s3,s3,v0
     fa0:	08000390 	j	e40 <OSFlagPost+0x88>
     fa4:	a6130008 	sh	s3,8(s0)
     fa8:	8fa40010 	lw	a0,16(sp)
     fac:	0c001ba2 	jal	6e88 <OS_CPU_SR_Restore>
     fb0:	00000000 	nop
     fb4:	080003ac 	j	eb0 <OSFlagPost+0xf8>
     fb8:	00000000 	nop
     fbc:	0c001883 	jal	620c <OS_Sched>
     fc0:	00000000 	nop
     fc4:	080003ac 	j	eb0 <OSFlagPost+0xf8>
     fc8:	00000000 	nop

00000fcc <OSFlagQuery>:
     fcc:	27bdffd8 	addiu	sp,sp,-40
     fd0:	afbf0024 	sw	ra,36(sp)
     fd4:	afb00020 	sw	s0,32(sp)
     fd8:	90820000 	lbu	v0,0(a0)
     fdc:	24030005 	li	v1,5
     fe0:	afa00010 	sw	zero,16(sp)
     fe4:	10430007 	beq	v0,v1,1004 <OSFlagQuery+0x38>
     fe8:	24020001 	li	v0,1
     fec:	a0a20000 	sb	v0,0(a1)
     ff0:	8fbf0024 	lw	ra,36(sp)
     ff4:	8fb00020 	lw	s0,32(sp)
     ff8:	00001021 	move	v0,zero
     ffc:	03e00008 	jr	ra
    1000:	27bd0028 	addiu	sp,sp,40
    1004:	afa5001c 	sw	a1,28(sp)
    1008:	0c001b9b 	jal	6e6c <OS_CPU_SR_Save>
    100c:	afa40018 	sw	a0,24(sp)
    1010:	afa20010 	sw	v0,16(sp)
    1014:	8fa20010 	lw	v0,16(sp)
    1018:	8fa40018 	lw	a0,24(sp)
    101c:	94900008 	lhu	s0,8(a0)
    1020:	0c001ba2 	jal	6e88 <OS_CPU_SR_Restore>
    1024:	00402021 	move	a0,v0
    1028:	8fa5001c 	lw	a1,28(sp)
    102c:	02001021 	move	v0,s0
    1030:	a0a00000 	sb	zero,0(a1)
    1034:	8fbf0024 	lw	ra,36(sp)
    1038:	8fb00020 	lw	s0,32(sp)
    103c:	03e00008 	jr	ra
    1040:	27bd0028 	addiu	sp,sp,40

00001044 <OS_FlagInit>:
    1044:	27bdffe8 	addiu	sp,sp,-24
    1048:	afb00010 	sw	s0,16(sp)
    104c:	3c100000 	lui	s0,0x0
    1050:	26047af8 	addiu	a0,s0,31480
    1054:	afbf0014 	sw	ra,20(sp)
    1058:	0c00186d 	jal	61b4 <OS_MemClr>
    105c:	24050050 	li	a1,80
    1060:	26047af8 	addiu	a0,s0,31480
    1064:	3c020000 	lui	v0,0x0
    1068:	24427b08 	addiu	v0,v0,31496
    106c:	00801821 	move	v1,a0
    1070:	3c060000 	lui	a2,0x0
    1074:	24c67404 	addiu	a2,a2,29700
    1078:	00402821 	move	a1,v0
    107c:	ac620004 	sw	v0,4(v1)
    1080:	24870050 	addiu	a3,a0,80
    1084:	24420010 	addiu	v0,v0,16
    1088:	a0600000 	sb	zero,0(v1)
    108c:	10470008 	beq	v0,a3,10b0 <OS_FlagInit+0x6c>
    1090:	ac66000c 	sw	a2,12(v1)
    1094:	00a01821 	move	v1,a1
    1098:	ac620004 	sw	v0,4(v1)
    109c:	00402821 	move	a1,v0
    10a0:	24420010 	addiu	v0,v0,16
    10a4:	a0600000 	sb	zero,0(v1)
    10a8:	1447fffa 	bne	v0,a3,1094 <OS_FlagInit+0x50>
    10ac:	ac66000c 	sw	a2,12(v1)
    10b0:	a0800040 	sb	zero,64(a0)
    10b4:	8fbf0014 	lw	ra,20(sp)
    10b8:	8fb00010 	lw	s0,16(sp)
    10bc:	ac800044 	sw	zero,68(a0)
    10c0:	ac86004c 	sw	a2,76(a0)
    10c4:	af8474c4 	sw	a0,29892(gp)
    10c8:	03e00008 	jr	ra
    10cc:	27bd0018 	addiu	sp,sp,24

000010d0 <OS_FlagUnlink>:
    10d0:	8c830004 	lw	v1,4(a0)
    10d4:	10600007 	beqz	v1,10f4 <OS_FlagUnlink+0x24>
    10d8:	8c820000 	lw	v0,0(a0)
    10dc:	10400002 	beqz	v0,10e8 <OS_FlagUnlink+0x18>
    10e0:	ac620000 	sw	v0,0(v1)
    10e4:	ac430004 	sw	v1,4(v0)
    10e8:	8c820008 	lw	v0,8(a0)
    10ec:	03e00008 	jr	ra
    10f0:	ac400028 	sw	zero,40(v0)
    10f4:	8c83000c 	lw	v1,12(a0)
    10f8:	1040fffb 	beqz	v0,10e8 <OS_FlagUnlink+0x18>
    10fc:	ac620004 	sw	v0,4(v1)
    1100:	ac400004 	sw	zero,4(v0)
    1104:	8c820008 	lw	v0,8(a0)
    1108:	03e00008 	jr	ra
    110c:	ac400028 	sw	zero,40(v0)

00001110 <OSMboxAccept>:
    1110:	27bdffd8 	addiu	sp,sp,-40
    1114:	afb0001c 	sw	s0,28(sp)
    1118:	afbf0024 	sw	ra,36(sp)
    111c:	afb10020 	sw	s1,32(sp)
    1120:	90830000 	lbu	v1,0(a0)
    1124:	24020001 	li	v0,1
    1128:	00808021 	move	s0,a0
    112c:	afa00010 	sw	zero,16(sp)
    1130:	1462000e 	bne	v1,v0,116c <OSMboxAccept+0x5c>
    1134:	8fbf0024 	lw	ra,36(sp)
    1138:	0c001b9b 	jal	6e6c <OS_CPU_SR_Save>
    113c:	00000000 	nop
    1140:	afa20010 	sw	v0,16(sp)
    1144:	8fa40010 	lw	a0,16(sp)
    1148:	8e110004 	lw	s1,4(s0)
    114c:	0c001ba2 	jal	6e88 <OS_CPU_SR_Restore>
    1150:	ae000004 	sw	zero,4(s0)
    1154:	8fbf0024 	lw	ra,36(sp)
    1158:	02201021 	move	v0,s1
    115c:	8fb0001c 	lw	s0,28(sp)
    1160:	8fb10020 	lw	s1,32(sp)
    1164:	03e00008 	jr	ra
    1168:	27bd0028 	addiu	sp,sp,40
    116c:	8fb10020 	lw	s1,32(sp)
    1170:	8fb0001c 	lw	s0,28(sp)
    1174:	00001021 	move	v0,zero
    1178:	03e00008 	jr	ra
    117c:	27bd0028 	addiu	sp,sp,40

00001180 <OSMboxCreate>:
    1180:	938274b0 	lbu	v0,29872(gp)
    1184:	27bdffd8 	addiu	sp,sp,-40
    1188:	afbf0024 	sw	ra,36(sp)
    118c:	afb10020 	sw	s1,32(sp)
    1190:	afb0001c 	sw	s0,28(sp)
    1194:	afa00010 	sw	zero,16(sp)
    1198:	1440001d 	bnez	v0,1210 <OSMboxCreate+0x90>
    119c:	8fbf0024 	lw	ra,36(sp)
    11a0:	0c001b9b 	jal	6e6c <OS_CPU_SR_Save>
    11a4:	00808821 	move	s1,a0
    11a8:	8f9074ac 	lw	s0,29868(gp)
    11ac:	afa20010 	sw	v0,16(sp)
    11b0:	8fa40010 	lw	a0,16(sp)
    11b4:	12000013 	beqz	s0,1204 <OSMboxCreate+0x84>
    11b8:	00000000 	nop
    11bc:	8e020004 	lw	v0,4(s0)
    11c0:	0c001ba2 	jal	6e88 <OS_CPU_SR_Restore>
    11c4:	af8274ac 	sw	v0,29868(gp)
    11c8:	24020001 	li	v0,1
    11cc:	a2020000 	sb	v0,0(s0)
    11d0:	3c020000 	lui	v0,0x0
    11d4:	24427404 	addiu	v0,v0,29700
    11d8:	ae110004 	sw	s1,4(s0)
    11dc:	ae020014 	sw	v0,20(s0)
    11e0:	a6000008 	sh	zero,8(s0)
    11e4:	0c001864 	jal	6190 <OS_EventWaitListInit>
    11e8:	02002021 	move	a0,s0
    11ec:	8fbf0024 	lw	ra,36(sp)
    11f0:	02001021 	move	v0,s0
    11f4:	8fb10020 	lw	s1,32(sp)
    11f8:	8fb0001c 	lw	s0,28(sp)
    11fc:	03e00008 	jr	ra
    1200:	27bd0028 	addiu	sp,sp,40
    1204:	0c001ba2 	jal	6e88 <OS_CPU_SR_Restore>
    1208:	00000000 	nop
    120c:	8fbf0024 	lw	ra,36(sp)
    1210:	8fb10020 	lw	s1,32(sp)
    1214:	8fb0001c 	lw	s0,28(sp)
    1218:	00001021 	move	v0,zero
    121c:	03e00008 	jr	ra
    1220:	27bd0028 	addiu	sp,sp,40

00001224 <OSMboxDel>:
    1224:	27bdffd0 	addiu	sp,sp,-48
    1228:	afb30024 	sw	s3,36(sp)
    122c:	afb20020 	sw	s2,32(sp)
    1230:	afb00018 	sw	s0,24(sp)
    1234:	afbf002c 	sw	ra,44(sp)
    1238:	afb40028 	sw	s4,40(sp)
    123c:	afb1001c 	sw	s1,28(sp)
    1240:	90910000 	lbu	s1,0(a0)
    1244:	24020001 	li	v0,1
    1248:	00808021 	move	s0,a0
    124c:	00c09021 	move	s2,a2
    1250:	30b300ff 	andi	s3,a1,0xff
    1254:	afa00010 	sw	zero,16(sp)
    1258:	1222000b 	beq	s1,v0,1288 <OSMboxDel+0x64>
    125c:	00000000 	nop
    1260:	a2420000 	sb	v0,0(s2)
    1264:	8fbf002c 	lw	ra,44(sp)
    1268:	02001021 	move	v0,s0
    126c:	8fb40028 	lw	s4,40(sp)
    1270:	8fb30024 	lw	s3,36(sp)
    1274:	8fb20020 	lw	s2,32(sp)
    1278:	8fb1001c 	lw	s1,28(sp)
    127c:	8fb00018 	lw	s0,24(sp)
    1280:	03e00008 	jr	ra
    1284:	27bd0030 	addiu	sp,sp,48
    1288:	938274b0 	lbu	v0,29872(gp)
    128c:	1040000b 	beqz	v0,12bc <OSMboxDel+0x98>
    1290:	2402000f 	li	v0,15
    1294:	a0c20000 	sb	v0,0(a2)
    1298:	8fbf002c 	lw	ra,44(sp)
    129c:	02001021 	move	v0,s0
    12a0:	8fb40028 	lw	s4,40(sp)
    12a4:	8fb30024 	lw	s3,36(sp)
    12a8:	8fb20020 	lw	s2,32(sp)
    12ac:	8fb1001c 	lw	s1,28(sp)
    12b0:	8fb00018 	lw	s0,24(sp)
    12b4:	03e00008 	jr	ra
    12b8:	27bd0030 	addiu	sp,sp,48
    12bc:	0c001b9b 	jal	6e6c <OS_CPU_SR_Save>
    12c0:	00000000 	nop
    12c4:	9214000a 	lbu	s4,10(s0)
    12c8:	afa20010 	sw	v0,16(sp)
    12cc:	12600025 	beqz	s3,1364 <OSMboxDel+0x140>
    12d0:	0014a02b 	sltu	s4,zero,s4
    12d4:	1671001a 	bne	s3,s1,1340 <OSMboxDel+0x11c>
    12d8:	00000000 	nop
    12dc:	1280000a 	beqz	s4,1308 <OSMboxDel+0xe4>
    12e0:	3c020000 	lui	v0,0x0
    12e4:	02002021 	move	a0,s0
    12e8:	00002821 	move	a1,zero
    12ec:	24060002 	li	a2,2
    12f0:	0c001824 	jal	6090 <OS_EventTaskRdy>
    12f4:	00003821 	move	a3,zero
    12f8:	9202000a 	lbu	v0,10(s0)
    12fc:	1440fffa 	bnez	v0,12e8 <OSMboxDel+0xc4>
    1300:	02002021 	move	a0,s0
    1304:	3c020000 	lui	v0,0x0
    1308:	a2000000 	sb	zero,0(s0)
    130c:	24427404 	addiu	v0,v0,29700
    1310:	ae020014 	sw	v0,20(s0)
    1314:	8f8274ac 	lw	v0,29868(gp)
    1318:	8fa40010 	lw	a0,16(sp)
    131c:	ae020004 	sw	v0,4(s0)
    1320:	a6000008 	sh	zero,8(s0)
    1324:	0c001ba2 	jal	6e88 <OS_CPU_SR_Restore>
    1328:	af9074ac 	sw	s0,29868(gp)
    132c:	16800009 	bnez	s4,1354 <OSMboxDel+0x130>
    1330:	00000000 	nop
    1334:	a2400000 	sb	zero,0(s2)
    1338:	08000499 	j	1264 <OSMboxDel+0x40>
    133c:	00008021 	move	s0,zero
    1340:	8fa40010 	lw	a0,16(sp)
    1344:	0c001ba2 	jal	6e88 <OS_CPU_SR_Restore>
    1348:	00000000 	nop
    134c:	08000498 	j	1260 <OSMboxDel+0x3c>
    1350:	24020007 	li	v0,7
    1354:	0c001883 	jal	620c <OS_Sched>
    1358:	00008021 	move	s0,zero
    135c:	08000499 	j	1264 <OSMboxDel+0x40>
    1360:	a2400000 	sb	zero,0(s2)
    1364:	1680000d 	bnez	s4,139c <OSMboxDel+0x178>
    1368:	3c020000 	lui	v0,0x0
    136c:	a2000000 	sb	zero,0(s0)
    1370:	24427404 	addiu	v0,v0,29700
    1374:	ae020014 	sw	v0,20(s0)
    1378:	8f8274ac 	lw	v0,29868(gp)
    137c:	8fa40010 	lw	a0,16(sp)
    1380:	ae020004 	sw	v0,4(s0)
    1384:	a6000008 	sh	zero,8(s0)
    1388:	0c001ba2 	jal	6e88 <OS_CPU_SR_Restore>
    138c:	af9074ac 	sw	s0,29868(gp)
    1390:	00008021 	move	s0,zero
    1394:	08000499 	j	1264 <OSMboxDel+0x40>
    1398:	a2400000 	sb	zero,0(s2)
    139c:	8fa40010 	lw	a0,16(sp)
    13a0:	0c001ba2 	jal	6e88 <OS_CPU_SR_Restore>
    13a4:	00000000 	nop
    13a8:	24020049 	li	v0,73
    13ac:	08000499 	j	1264 <OSMboxDel+0x40>
    13b0:	a2420000 	sb	v0,0(s2)

000013b4 <OSMboxPend>:
    13b4:	27bdffd0 	addiu	sp,sp,-48
    13b8:	afb10020 	sw	s1,32(sp)
    13bc:	afb0001c 	sw	s0,28(sp)
    13c0:	afbf002c 	sw	ra,44(sp)
    13c4:	afb30028 	sw	s3,40(sp)
    13c8:	afb20024 	sw	s2,36(sp)
    13cc:	90830000 	lbu	v1,0(a0)
    13d0:	24020001 	li	v0,1
    13d4:	00808021 	move	s0,a0
    13d8:	00c08821 	move	s1,a2
    13dc:	afa00010 	sw	zero,16(sp)
    13e0:	14620019 	bne	v1,v0,1448 <OSMboxPend+0x94>
    13e4:	00000000 	nop
    13e8:	938274b0 	lbu	v0,29872(gp)
    13ec:	14400015 	bnez	v0,1444 <OSMboxPend+0x90>
    13f0:	93827464 	lbu	v0,29796(gp)
    13f4:	14400046 	bnez	v0,1510 <OSMboxPend+0x15c>
    13f8:	8fbf002c 	lw	ra,44(sp)
    13fc:	0c001b9b 	jal	6e6c <OS_CPU_SR_Save>
    1400:	00a09821 	move	s3,a1
    1404:	8e120004 	lw	s2,4(s0)
    1408:	afa20010 	sw	v0,16(sp)
    140c:	12400017 	beqz	s2,146c <OSMboxPend+0xb8>
    1410:	8f8274b4 	lw	v0,29876(gp)
    1414:	8fa40010 	lw	a0,16(sp)
    1418:	0c001ba2 	jal	6e88 <OS_CPU_SR_Restore>
    141c:	ae000004 	sw	zero,4(s0)
    1420:	a2200000 	sb	zero,0(s1)
    1424:	8fbf002c 	lw	ra,44(sp)
    1428:	02401021 	move	v0,s2
    142c:	8fb30028 	lw	s3,40(sp)
    1430:	8fb20024 	lw	s2,36(sp)
    1434:	8fb10020 	lw	s1,32(sp)
    1438:	8fb0001c 	lw	s0,28(sp)
    143c:	03e00008 	jr	ra
    1440:	27bd0030 	addiu	sp,sp,48
    1444:	24020002 	li	v0,2
    1448:	a2220000 	sb	v0,0(s1)
    144c:	8fbf002c 	lw	ra,44(sp)
    1450:	8fb30028 	lw	s3,40(sp)
    1454:	8fb20024 	lw	s2,36(sp)
    1458:	8fb10020 	lw	s1,32(sp)
    145c:	8fb0001c 	lw	s0,28(sp)
    1460:	00001021 	move	v0,zero
    1464:	03e00008 	jr	ra
    1468:	27bd0030 	addiu	sp,sp,48
    146c:	02002021 	move	a0,s0
    1470:	90430034 	lbu	v1,52(v0)
    1474:	a0400035 	sb	zero,53(v0)
    1478:	34630002 	ori	v1,v1,0x2
    147c:	a0430034 	sb	v1,52(v0)
    1480:	0c0017be 	jal	5ef8 <OS_EventTaskWait>
    1484:	ac530030 	sw	s3,48(v0)
    1488:	8fa40010 	lw	a0,16(sp)
    148c:	0c001ba2 	jal	6e88 <OS_CPU_SR_Restore>
    1490:	00000000 	nop
    1494:	0c001883 	jal	620c <OS_Sched>
    1498:	00000000 	nop
    149c:	0c001b9b 	jal	6e6c <OS_CPU_SR_Save>
    14a0:	00000000 	nop
    14a4:	8f8474b4 	lw	a0,29876(gp)
    14a8:	afa20010 	sw	v0,16(sp)
    14ac:	90820035 	lbu	v0,53(a0)
    14b0:	10400022 	beqz	v0,153c <OSMboxPend+0x188>
    14b4:	24030002 	li	v1,2
    14b8:	1043001e 	beq	v0,v1,1534 <OSMboxPend+0x180>
    14bc:	2402000e 	li	v0,14
    14c0:	0c0017ff 	jal	5ffc <OS_EventTaskRemove>
    14c4:	02002821 	move	a1,s0
    14c8:	2402000a 	li	v0,10
    14cc:	a2220000 	sb	v0,0(s1)
    14d0:	8f8274b4 	lw	v0,29876(gp)
    14d4:	8fa40010 	lw	a0,16(sp)
    14d8:	a0400034 	sb	zero,52(v0)
    14dc:	a0400035 	sb	zero,53(v0)
    14e0:	ac40001c 	sw	zero,28(v0)
    14e4:	ac400020 	sw	zero,32(v0)
    14e8:	0c001ba2 	jal	6e88 <OS_CPU_SR_Restore>
    14ec:	ac400024 	sw	zero,36(v0)
    14f0:	8fbf002c 	lw	ra,44(sp)
    14f4:	02401021 	move	v0,s2
    14f8:	8fb30028 	lw	s3,40(sp)
    14fc:	8fb20024 	lw	s2,36(sp)
    1500:	8fb10020 	lw	s1,32(sp)
    1504:	8fb0001c 	lw	s0,28(sp)
    1508:	03e00008 	jr	ra
    150c:	27bd0030 	addiu	sp,sp,48
    1510:	2402000d 	li	v0,13
    1514:	8fb30028 	lw	s3,40(sp)
    1518:	8fb20024 	lw	s2,36(sp)
    151c:	8fb10020 	lw	s1,32(sp)
    1520:	8fb0001c 	lw	s0,28(sp)
    1524:	a0c20000 	sb	v0,0(a2)
    1528:	00001021 	move	v0,zero
    152c:	03e00008 	jr	ra
    1530:	27bd0030 	addiu	sp,sp,48
    1534:	08000534 	j	14d0 <OSMboxPend+0x11c>
    1538:	a2220000 	sb	v0,0(s1)
    153c:	8c920024 	lw	s2,36(a0)
    1540:	08000534 	j	14d0 <OSMboxPend+0x11c>
    1544:	a2200000 	sb	zero,0(s1)

00001548 <OSMboxPendAbort>:
    1548:	27bdffd0 	addiu	sp,sp,-48
    154c:	afb30028 	sw	s3,40(sp)
    1550:	afb20024 	sw	s2,36(sp)
    1554:	afb0001c 	sw	s0,28(sp)
    1558:	afbf002c 	sw	ra,44(sp)
    155c:	afb10020 	sw	s1,32(sp)
    1560:	90910000 	lbu	s1,0(a0)
    1564:	24020001 	li	v0,1
    1568:	00808021 	move	s0,a0
    156c:	00c09021 	move	s2,a2
    1570:	30b300ff 	andi	s3,a1,0xff
    1574:	afa00010 	sw	zero,16(sp)
    1578:	1222000a 	beq	s1,v0,15a4 <OSMboxPendAbort+0x5c>
    157c:	00000000 	nop
    1580:	a0c20000 	sb	v0,0(a2)
    1584:	00001021 	move	v0,zero
    1588:	8fbf002c 	lw	ra,44(sp)
    158c:	8fb30028 	lw	s3,40(sp)
    1590:	8fb20024 	lw	s2,36(sp)
    1594:	8fb10020 	lw	s1,32(sp)
    1598:	8fb0001c 	lw	s0,28(sp)
    159c:	03e00008 	jr	ra
    15a0:	27bd0030 	addiu	sp,sp,48
    15a4:	0c001b9b 	jal	6e6c <OS_CPU_SR_Save>
    15a8:	00000000 	nop
    15ac:	9203000a 	lbu	v1,10(s0)
    15b0:	afa20010 	sw	v0,16(sp)
    15b4:	1060001c 	beqz	v1,1628 <OSMboxPendAbort+0xe0>
    15b8:	00000000 	nop
    15bc:	16710020 	bne	s3,s1,1640 <OSMboxPendAbort+0xf8>
    15c0:	02002021 	move	a0,s0
    15c4:	00008821 	move	s1,zero
    15c8:	02002021 	move	a0,s0
    15cc:	00002821 	move	a1,zero
    15d0:	24060002 	li	a2,2
    15d4:	0c001824 	jal	6090 <OS_EventTaskRdy>
    15d8:	24070002 	li	a3,2
    15dc:	9202000a 	lbu	v0,10(s0)
    15e0:	26310001 	addiu	s1,s1,1
    15e4:	1440fff8 	bnez	v0,15c8 <OSMboxPendAbort+0x80>
    15e8:	323100ff 	andi	s1,s1,0xff
    15ec:	8fa40010 	lw	a0,16(sp)
    15f0:	0c001ba2 	jal	6e88 <OS_CPU_SR_Restore>
    15f4:	00000000 	nop
    15f8:	0c001883 	jal	620c <OS_Sched>
    15fc:	00000000 	nop
    1600:	2402000e 	li	v0,14
    1604:	a2420000 	sb	v0,0(s2)
    1608:	8fbf002c 	lw	ra,44(sp)
    160c:	02201021 	move	v0,s1
    1610:	8fb30028 	lw	s3,40(sp)
    1614:	8fb20024 	lw	s2,36(sp)
    1618:	8fb10020 	lw	s1,32(sp)
    161c:	8fb0001c 	lw	s0,28(sp)
    1620:	03e00008 	jr	ra
    1624:	27bd0030 	addiu	sp,sp,48
    1628:	8fa40010 	lw	a0,16(sp)
    162c:	0c001ba2 	jal	6e88 <OS_CPU_SR_Restore>
    1630:	00000000 	nop
    1634:	a2400000 	sb	zero,0(s2)
    1638:	08000562 	j	1588 <OSMboxPendAbort+0x40>
    163c:	00001021 	move	v0,zero
    1640:	00002821 	move	a1,zero
    1644:	24060002 	li	a2,2
    1648:	0c001824 	jal	6090 <OS_EventTaskRdy>
    164c:	24070002 	li	a3,2
    1650:	0800057b 	j	15ec <OSMboxPendAbort+0xa4>
    1654:	24110001 	li	s1,1

00001658 <OSMboxPost>:
    1658:	27bdffd8 	addiu	sp,sp,-40
    165c:	afbf0024 	sw	ra,36(sp)
    1660:	90820000 	lbu	v0,0(a0)
    1664:	24030001 	li	v1,1
    1668:	afa00010 	sw	zero,16(sp)
    166c:	10430004 	beq	v0,v1,1680 <OSMboxPost+0x28>
    1670:	24020001 	li	v0,1
    1674:	8fbf0024 	lw	ra,36(sp)
    1678:	03e00008 	jr	ra
    167c:	27bd0028 	addiu	sp,sp,40
    1680:	afa40018 	sw	a0,24(sp)
    1684:	0c001b9b 	jal	6e6c <OS_CPU_SR_Save>
    1688:	afa5001c 	sw	a1,28(sp)
    168c:	8fa40018 	lw	a0,24(sp)
    1690:	afa20010 	sw	v0,16(sp)
    1694:	9083000a 	lbu	v1,10(a0)
    1698:	1460000b 	bnez	v1,16c8 <OSMboxPost+0x70>
    169c:	8fa5001c 	lw	a1,28(sp)
    16a0:	8c820004 	lw	v0,4(a0)
    16a4:	10400012 	beqz	v0,16f0 <OSMboxPost+0x98>
    16a8:	00000000 	nop
    16ac:	8fa40010 	lw	a0,16(sp)
    16b0:	0c001ba2 	jal	6e88 <OS_CPU_SR_Restore>
    16b4:	00000000 	nop
    16b8:	8fbf0024 	lw	ra,36(sp)
    16bc:	24020014 	li	v0,20
    16c0:	03e00008 	jr	ra
    16c4:	27bd0028 	addiu	sp,sp,40
    16c8:	24060002 	li	a2,2
    16cc:	0c001824 	jal	6090 <OS_EventTaskRdy>
    16d0:	00003821 	move	a3,zero
    16d4:	8fa40010 	lw	a0,16(sp)
    16d8:	0c001ba2 	jal	6e88 <OS_CPU_SR_Restore>
    16dc:	00000000 	nop
    16e0:	0c001883 	jal	620c <OS_Sched>
    16e4:	00000000 	nop
    16e8:	0800059d 	j	1674 <OSMboxPost+0x1c>
    16ec:	00001021 	move	v0,zero
    16f0:	8fa20010 	lw	v0,16(sp)
    16f4:	ac850004 	sw	a1,4(a0)
    16f8:	0c001ba2 	jal	6e88 <OS_CPU_SR_Restore>
    16fc:	00402021 	move	a0,v0
    1700:	0800059d 	j	1674 <OSMboxPost+0x1c>
    1704:	00001021 	move	v0,zero

00001708 <OSMboxPostOpt>:
    1708:	27bdffd0 	addiu	sp,sp,-48
    170c:	afb20028 	sw	s2,40(sp)
    1710:	afb00020 	sw	s0,32(sp)
    1714:	afbf002c 	sw	ra,44(sp)
    1718:	afb10024 	sw	s1,36(sp)
    171c:	90830000 	lbu	v1,0(a0)
    1720:	00808021 	move	s0,a0
    1724:	24040001 	li	a0,1
    1728:	30d200ff 	andi	s2,a2,0xff
    172c:	afa00010 	sw	zero,16(sp)
    1730:	10640007 	beq	v1,a0,1750 <OSMboxPostOpt+0x48>
    1734:	24020001 	li	v0,1
    1738:	8fbf002c 	lw	ra,44(sp)
    173c:	8fb20028 	lw	s2,40(sp)
    1740:	8fb10024 	lw	s1,36(sp)
    1744:	8fb00020 	lw	s0,32(sp)
    1748:	03e00008 	jr	ra
    174c:	27bd0030 	addiu	sp,sp,48
    1750:	0c001b9b 	jal	6e6c <OS_CPU_SR_Save>
    1754:	00a08821 	move	s1,a1
    1758:	9203000a 	lbu	v1,10(s0)
    175c:	afa20010 	sw	v0,16(sp)
    1760:	10600013 	beqz	v1,17b0 <OSMboxPostOpt+0xa8>
    1764:	32420001 	andi	v0,s2,0x1
    1768:	1040001a 	beqz	v0,17d4 <OSMboxPostOpt+0xcc>
    176c:	02002021 	move	a0,s0
    1770:	02202821 	move	a1,s1
    1774:	24060002 	li	a2,2
    1778:	0c001824 	jal	6090 <OS_EventTaskRdy>
    177c:	00003821 	move	a3,zero
    1780:	9203000a 	lbu	v1,10(s0)
    1784:	1460fffa 	bnez	v1,1770 <OSMboxPostOpt+0x68>
    1788:	02002021 	move	a0,s0
    178c:	8fa40010 	lw	a0,16(sp)
    1790:	0c001ba2 	jal	6e88 <OS_CPU_SR_Restore>
    1794:	00000000 	nop
    1798:	32420004 	andi	v0,s2,0x4
    179c:	304200ff 	andi	v0,v0,0xff
    17a0:	10400012 	beqz	v0,17ec <OSMboxPostOpt+0xe4>
    17a4:	00000000 	nop
    17a8:	080005ce 	j	1738 <OSMboxPostOpt+0x30>
    17ac:	00001021 	move	v0,zero
    17b0:	8e020004 	lw	v0,4(s0)
    17b4:	8fa40010 	lw	a0,16(sp)
    17b8:	10400010 	beqz	v0,17fc <OSMboxPostOpt+0xf4>
    17bc:	00000000 	nop
    17c0:	24020014 	li	v0,20
    17c4:	0c001ba2 	jal	6e88 <OS_CPU_SR_Restore>
    17c8:	afa20018 	sw	v0,24(sp)
    17cc:	080005ce 	j	1738 <OSMboxPostOpt+0x30>
    17d0:	8fa20018 	lw	v0,24(sp)
    17d4:	02202821 	move	a1,s1
    17d8:	24060002 	li	a2,2
    17dc:	0c001824 	jal	6090 <OS_EventTaskRdy>
    17e0:	00003821 	move	a3,zero
    17e4:	080005e3 	j	178c <OSMboxPostOpt+0x84>
    17e8:	00000000 	nop
    17ec:	0c001883 	jal	620c <OS_Sched>
    17f0:	afa20018 	sw	v0,24(sp)
    17f4:	080005ce 	j	1738 <OSMboxPostOpt+0x30>
    17f8:	8fa20018 	lw	v0,24(sp)
    17fc:	0c001ba2 	jal	6e88 <OS_CPU_SR_Restore>
    1800:	ae110004 	sw	s1,4(s0)
    1804:	080005ce 	j	1738 <OSMboxPostOpt+0x30>
    1808:	00001021 	move	v0,zero

0000180c <OSMboxQuery>:
    180c:	27bdffd8 	addiu	sp,sp,-40
    1810:	afbf0024 	sw	ra,36(sp)
    1814:	90820000 	lbu	v0,0(a0)
    1818:	24030001 	li	v1,1
    181c:	afa00010 	sw	zero,16(sp)
    1820:	10430004 	beq	v0,v1,1834 <OSMboxQuery+0x28>
    1824:	8fbf0024 	lw	ra,36(sp)
    1828:	24020001 	li	v0,1
    182c:	03e00008 	jr	ra
    1830:	27bd0028 	addiu	sp,sp,40
    1834:	afa40018 	sw	a0,24(sp)
    1838:	0c001b9b 	jal	6e6c <OS_CPU_SR_Save>
    183c:	afa5001c 	sw	a1,28(sp)
    1840:	8fa40018 	lw	a0,24(sp)
    1844:	8fa5001c 	lw	a1,28(sp)
    1848:	9083000a 	lbu	v1,10(a0)
    184c:	afa20010 	sw	v0,16(sp)
    1850:	a0a3000c 	sb	v1,12(a1)
    1854:	2482000b 	addiu	v0,a0,11
    1858:	24a30004 	addiu	v1,a1,4
    185c:	24870013 	addiu	a3,a0,19
    1860:	24420001 	addiu	v0,v0,1
    1864:	9046ffff 	lbu	a2,-1(v0)
    1868:	24630001 	addiu	v1,v1,1
    186c:	1447fffc 	bne	v0,a3,1860 <OSMboxQuery+0x54>
    1870:	a066ffff 	sb	a2,-1(v1)
    1874:	8c820004 	lw	v0,4(a0)
    1878:	8fa40010 	lw	a0,16(sp)
    187c:	0c001ba2 	jal	6e88 <OS_CPU_SR_Restore>
    1880:	aca20000 	sw	v0,0(a1)
    1884:	8fbf0024 	lw	ra,36(sp)
    1888:	00001021 	move	v0,zero
    188c:	03e00008 	jr	ra
    1890:	27bd0028 	addiu	sp,sp,40

00001894 <OSMemCreate>:
    1894:	27bdffd0 	addiu	sp,sp,-48
    1898:	afb40028 	sw	s4,40(sp)
    189c:	afb30024 	sw	s3,36(sp)
    18a0:	afb20020 	sw	s2,32(sp)
    18a4:	afb1001c 	sw	s1,28(sp)
    18a8:	afb00018 	sw	s0,24(sp)
    18ac:	00809021 	move	s2,a0
    18b0:	afbf002c 	sw	ra,44(sp)
    18b4:	00a09821 	move	s3,a1
    18b8:	00c08021 	move	s0,a2
    18bc:	00e0a021 	move	s4,a3
    18c0:	afa00010 	sw	zero,16(sp)
    18c4:	0c001b9b 	jal	6e6c <OS_CPU_SR_Save>
    18c8:	00000000 	nop
    18cc:	8f917494 	lw	s1,29844(gp)
    18d0:	afa20010 	sw	v0,16(sp)
    18d4:	8fa40010 	lw	a0,16(sp)
    18d8:	12200020 	beqz	s1,195c <OSMemCreate+0xc8>
    18dc:	00000000 	nop
    18e0:	8e220004 	lw	v0,4(s1)
    18e4:	0c001ba2 	jal	6e88 <OS_CPU_SR_Restore>
    18e8:	af827494 	sw	v0,29844(gp)
    18ec:	2666ffff 	addiu	a2,s3,-1
    18f0:	10c00027 	beqz	a2,1990 <OSMemCreate+0xfc>
    18f4:	00001021 	move	v0,zero
    18f8:	08000641 	j	1904 <OSMemCreate+0x70>
    18fc:	02401821 	move	v1,s2
    1900:	01001821 	move	v1,t0
    1904:	00704021 	addu	t0,v1,s0
    1908:	24420001 	addiu	v0,v0,1
    190c:	14c2fffc 	bne	a2,v0,1900 <OSMemCreate+0x6c>
    1910:	ac680000 	sw	t0,0(v1)
    1914:	70d01002 	mul	v0,a2,s0
    1918:	00523021 	addu	a2,v0,s2
    191c:	acc00000 	sw	zero,0(a2)
    1920:	ae320000 	sw	s2,0(s1)
    1924:	ae320004 	sw	s2,4(s1)
    1928:	ae330010 	sw	s3,16(s1)
    192c:	ae33000c 	sw	s3,12(s1)
    1930:	ae300008 	sw	s0,8(s1)
    1934:	a2800000 	sb	zero,0(s4)
    1938:	8fbf002c 	lw	ra,44(sp)
    193c:	02201021 	move	v0,s1
    1940:	8fb40028 	lw	s4,40(sp)
    1944:	8fb30024 	lw	s3,36(sp)
    1948:	8fb20020 	lw	s2,32(sp)
    194c:	8fb1001c 	lw	s1,28(sp)
    1950:	8fb00018 	lw	s0,24(sp)
    1954:	03e00008 	jr	ra
    1958:	27bd0030 	addiu	sp,sp,48
    195c:	0c001ba2 	jal	6e88 <OS_CPU_SR_Restore>
    1960:	00000000 	nop
    1964:	2402005a 	li	v0,90
    1968:	a2820000 	sb	v0,0(s4)
    196c:	8fbf002c 	lw	ra,44(sp)
    1970:	8fb40028 	lw	s4,40(sp)
    1974:	8fb30024 	lw	s3,36(sp)
    1978:	8fb20020 	lw	s2,32(sp)
    197c:	8fb1001c 	lw	s1,28(sp)
    1980:	8fb00018 	lw	s0,24(sp)
    1984:	00001021 	move	v0,zero
    1988:	03e00008 	jr	ra
    198c:	27bd0030 	addiu	sp,sp,48
    1990:	08000647 	j	191c <OSMemCreate+0x88>
    1994:	02403021 	move	a2,s2

00001998 <OSMemGet>:
    1998:	27bdffd8 	addiu	sp,sp,-40
    199c:	afb00018 	sw	s0,24(sp)
    19a0:	00808021 	move	s0,a0
    19a4:	afb20020 	sw	s2,32(sp)
    19a8:	afbf0024 	sw	ra,36(sp)
    19ac:	afb1001c 	sw	s1,28(sp)
    19b0:	00a09021 	move	s2,a1
    19b4:	afa00010 	sw	zero,16(sp)
    19b8:	0c001b9b 	jal	6e6c <OS_CPU_SR_Save>
    19bc:	00000000 	nop
    19c0:	8e030010 	lw	v1,16(s0)
    19c4:	afa20010 	sw	v0,16(sp)
    19c8:	10600010 	beqz	v1,1a0c <OSMemGet+0x74>
    19cc:	00000000 	nop
    19d0:	8e110004 	lw	s1,4(s0)
    19d4:	8fa40010 	lw	a0,16(sp)
    19d8:	8e220000 	lw	v0,0(s1)
    19dc:	2463ffff 	addiu	v1,v1,-1
    19e0:	ae020004 	sw	v0,4(s0)
    19e4:	0c001ba2 	jal	6e88 <OS_CPU_SR_Restore>
    19e8:	ae030010 	sw	v1,16(s0)
    19ec:	a2400000 	sb	zero,0(s2)
    19f0:	8fbf0024 	lw	ra,36(sp)
    19f4:	02201021 	move	v0,s1
    19f8:	8fb20020 	lw	s2,32(sp)
    19fc:	8fb1001c 	lw	s1,28(sp)
    1a00:	8fb00018 	lw	s0,24(sp)
    1a04:	03e00008 	jr	ra
    1a08:	27bd0028 	addiu	sp,sp,40
    1a0c:	8fa40010 	lw	a0,16(sp)
    1a10:	0c001ba2 	jal	6e88 <OS_CPU_SR_Restore>
    1a14:	00000000 	nop
    1a18:	2402005d 	li	v0,93
    1a1c:	a2420000 	sb	v0,0(s2)
    1a20:	8fbf0024 	lw	ra,36(sp)
    1a24:	8fb20020 	lw	s2,32(sp)
    1a28:	8fb1001c 	lw	s1,28(sp)
    1a2c:	8fb00018 	lw	s0,24(sp)
    1a30:	00001021 	move	v0,zero
    1a34:	03e00008 	jr	ra
    1a38:	27bd0028 	addiu	sp,sp,40

00001a3c <OSMemNameGet>:
    1a3c:	938274b0 	lbu	v0,29872(gp)
    1a40:	27bdffd0 	addiu	sp,sp,-48
    1a44:	afbf002c 	sw	ra,44(sp)
    1a48:	afb00028 	sw	s0,40(sp)
    1a4c:	afa00010 	sw	zero,16(sp)
    1a50:	10400007 	beqz	v0,1a70 <OSMemNameGet+0x34>
    1a54:	24020011 	li	v0,17
    1a58:	a0c20000 	sb	v0,0(a2)
    1a5c:	8fbf002c 	lw	ra,44(sp)
    1a60:	8fb00028 	lw	s0,40(sp)
    1a64:	00001021 	move	v0,zero
    1a68:	03e00008 	jr	ra
    1a6c:	27bd0030 	addiu	sp,sp,48
    1a70:	afa60020 	sw	a2,32(sp)
    1a74:	afa40018 	sw	a0,24(sp)
    1a78:	0c001b9b 	jal	6e6c <OS_CPU_SR_Save>
    1a7c:	afa5001c 	sw	a1,28(sp)
    1a80:	8fa40018 	lw	a0,24(sp)
    1a84:	8fa5001c 	lw	a1,28(sp)
    1a88:	8c830014 	lw	v1,20(a0)
    1a8c:	afa20010 	sw	v0,16(sp)
    1a90:	00602021 	move	a0,v1
    1a94:	0c0019d4 	jal	6750 <OS_StrLen>
    1a98:	aca30000 	sw	v1,0(a1)
    1a9c:	8fa40010 	lw	a0,16(sp)
    1aa0:	0c001ba2 	jal	6e88 <OS_CPU_SR_Restore>
    1aa4:	00408021 	move	s0,v0
    1aa8:	8fa60020 	lw	a2,32(sp)
    1aac:	02001021 	move	v0,s0
    1ab0:	a0c00000 	sb	zero,0(a2)
    1ab4:	8fbf002c 	lw	ra,44(sp)
    1ab8:	8fb00028 	lw	s0,40(sp)
    1abc:	03e00008 	jr	ra
    1ac0:	27bd0030 	addiu	sp,sp,48

00001ac4 <OSMemNameSet>:
    1ac4:	938274b0 	lbu	v0,29872(gp)
    1ac8:	27bdffd8 	addiu	sp,sp,-40
    1acc:	afbf0024 	sw	ra,36(sp)
    1ad0:	afb00020 	sw	s0,32(sp)
    1ad4:	afa00010 	sw	zero,16(sp)
    1ad8:	10400006 	beqz	v0,1af4 <OSMemNameSet+0x30>
    1adc:	24020012 	li	v0,18
    1ae0:	a0c20000 	sb	v0,0(a2)
    1ae4:	8fbf0024 	lw	ra,36(sp)
    1ae8:	8fb00020 	lw	s0,32(sp)
    1aec:	03e00008 	jr	ra
    1af0:	27bd0028 	addiu	sp,sp,40
    1af4:	00808021 	move	s0,a0
    1af8:	afa6001c 	sw	a2,28(sp)
    1afc:	0c001b9b 	jal	6e6c <OS_CPU_SR_Save>
    1b00:	afa50018 	sw	a1,24(sp)
    1b04:	afa20010 	sw	v0,16(sp)
    1b08:	8fa50018 	lw	a1,24(sp)
    1b0c:	8fa40010 	lw	a0,16(sp)
    1b10:	0c001ba2 	jal	6e88 <OS_CPU_SR_Restore>
    1b14:	ae050014 	sw	a1,20(s0)
    1b18:	8fa6001c 	lw	a2,28(sp)
    1b1c:	a0c00000 	sb	zero,0(a2)
    1b20:	8fbf0024 	lw	ra,36(sp)
    1b24:	8fb00020 	lw	s0,32(sp)
    1b28:	03e00008 	jr	ra
    1b2c:	27bd0028 	addiu	sp,sp,40

00001b30 <OSMemPut>:
    1b30:	27bdffd8 	addiu	sp,sp,-40
    1b34:	afb0001c 	sw	s0,28(sp)
    1b38:	00808021 	move	s0,a0
    1b3c:	afb10020 	sw	s1,32(sp)
    1b40:	afbf0024 	sw	ra,36(sp)
    1b44:	00a08821 	move	s1,a1
    1b48:	afa00010 	sw	zero,16(sp)
    1b4c:	0c001b9b 	jal	6e6c <OS_CPU_SR_Save>
    1b50:	00000000 	nop
    1b54:	8e030010 	lw	v1,16(s0)
    1b58:	8e04000c 	lw	a0,12(s0)
    1b5c:	afa20010 	sw	v0,16(sp)
    1b60:	0064102b 	sltu	v0,v1,a0
    1b64:	1440000a 	bnez	v0,1b90 <OSMemPut+0x60>
    1b68:	00000000 	nop
    1b6c:	8fa40010 	lw	a0,16(sp)
    1b70:	0c001ba2 	jal	6e88 <OS_CPU_SR_Restore>
    1b74:	00000000 	nop
    1b78:	8fbf0024 	lw	ra,36(sp)
    1b7c:	8fb10020 	lw	s1,32(sp)
    1b80:	8fb0001c 	lw	s0,28(sp)
    1b84:	2402005e 	li	v0,94
    1b88:	03e00008 	jr	ra
    1b8c:	27bd0028 	addiu	sp,sp,40
    1b90:	8e020004 	lw	v0,4(s0)
    1b94:	8fa40010 	lw	a0,16(sp)
    1b98:	24630001 	addiu	v1,v1,1
    1b9c:	ae220000 	sw	v0,0(s1)
    1ba0:	ae110004 	sw	s1,4(s0)
    1ba4:	0c001ba2 	jal	6e88 <OS_CPU_SR_Restore>
    1ba8:	ae030010 	sw	v1,16(s0)
    1bac:	8fbf0024 	lw	ra,36(sp)
    1bb0:	8fb10020 	lw	s1,32(sp)
    1bb4:	8fb0001c 	lw	s0,28(sp)
    1bb8:	00001021 	move	v0,zero
    1bbc:	03e00008 	jr	ra
    1bc0:	27bd0028 	addiu	sp,sp,40

00001bc4 <OSMemQuery>:
    1bc4:	27bdffd8 	addiu	sp,sp,-40
    1bc8:	afbf0024 	sw	ra,36(sp)
    1bcc:	afb10020 	sw	s1,32(sp)
    1bd0:	afb0001c 	sw	s0,28(sp)
    1bd4:	00808821 	move	s1,a0
    1bd8:	00a08021 	move	s0,a1
    1bdc:	afa00010 	sw	zero,16(sp)
    1be0:	0c001b9b 	jal	6e6c <OS_CPU_SR_Save>
    1be4:	00000000 	nop
    1be8:	afa20010 	sw	v0,16(sp)
    1bec:	8e23000c 	lw	v1,12(s1)
    1bf0:	8e220010 	lw	v0,16(s1)
    1bf4:	8e270000 	lw	a3,0(s1)
    1bf8:	8e260004 	lw	a2,4(s1)
    1bfc:	8e250008 	lw	a1,8(s1)
    1c00:	8fa40010 	lw	a0,16(sp)
    1c04:	ae03000c 	sw	v1,12(s0)
    1c08:	ae020010 	sw	v0,16(s0)
    1c0c:	ae070000 	sw	a3,0(s0)
    1c10:	ae060004 	sw	a2,4(s0)
    1c14:	0c001ba2 	jal	6e88 <OS_CPU_SR_Restore>
    1c18:	ae050008 	sw	a1,8(s0)
    1c1c:	8e04000c 	lw	a0,12(s0)
    1c20:	8e030010 	lw	v1,16(s0)
    1c24:	8fbf0024 	lw	ra,36(sp)
    1c28:	00831823 	subu	v1,a0,v1
    1c2c:	ae030014 	sw	v1,20(s0)
    1c30:	8fb10020 	lw	s1,32(sp)
    1c34:	8fb0001c 	lw	s0,28(sp)
    1c38:	00001021 	move	v0,zero
    1c3c:	03e00008 	jr	ra
    1c40:	27bd0028 	addiu	sp,sp,40

00001c44 <OS_MemInit>:
    1c44:	27bdffe8 	addiu	sp,sp,-24
    1c48:	afb00010 	sw	s0,16(sp)
    1c4c:	3c100000 	lui	s0,0x0
    1c50:	26047dc8 	addiu	a0,s0,32200
    1c54:	afbf0014 	sw	ra,20(sp)
    1c58:	0c00186d 	jal	61b4 <OS_MemClr>
    1c5c:	24050078 	li	a1,120
    1c60:	3c040000 	lui	a0,0x0
    1c64:	26027dc8 	addiu	v0,s0,32200
    1c68:	24847de0 	addiu	a0,a0,32224
    1c6c:	ac440004 	sw	a0,4(v0)
    1c70:	3c040000 	lui	a0,0x0
    1c74:	24847df8 	addiu	a0,a0,32248
    1c78:	ac44001c 	sw	a0,28(v0)
    1c7c:	3c040000 	lui	a0,0x0
    1c80:	24847e10 	addiu	a0,a0,32272
    1c84:	8fbf0014 	lw	ra,20(sp)
    1c88:	3c030000 	lui	v1,0x0
    1c8c:	ac440034 	sw	a0,52(v0)
    1c90:	3c040000 	lui	a0,0x0
    1c94:	24637404 	addiu	v1,v1,29700
    1c98:	24847e28 	addiu	a0,a0,32296
    1c9c:	8fb00010 	lw	s0,16(sp)
    1ca0:	ac430014 	sw	v1,20(v0)
    1ca4:	ac43002c 	sw	v1,44(v0)
    1ca8:	ac430044 	sw	v1,68(v0)
    1cac:	ac44004c 	sw	a0,76(v0)
    1cb0:	ac43005c 	sw	v1,92(v0)
    1cb4:	ac400064 	sw	zero,100(v0)
    1cb8:	ac430074 	sw	v1,116(v0)
    1cbc:	af827494 	sw	v0,29844(gp)
    1cc0:	03e00008 	jr	ra
    1cc4:	27bd0018 	addiu	sp,sp,24

00001cc8 <OSMutex_RdyAtPrio>:
    1cc8:	90860038 	lbu	a2,56(a0)
    1ccc:	278374a4 	addiu	v1,gp,29860
    1cd0:	00663021 	addu	a2,v1,a2
    1cd4:	90820039 	lbu	v0,57(a0)
    1cd8:	90c70000 	lbu	a3,0(a2)
    1cdc:	00021027 	nor	v0,zero,v0
    1ce0:	00471024 	and	v0,v0,a3
    1ce4:	1440001f 	bnez	v0,1d64 <OSMutex_RdyAtPrio+0x9c>
    1ce8:	a0c20000 	sb	v0,0(a2)
    1cec:	908b003a 	lbu	t3,58(a0)
    1cf0:	938274a0 	lbu	v0,29856(gp)
    1cf4:	000b5827 	nor	t3,zero,t3
    1cf8:	01625824 	and	t3,t3,v0
    1cfc:	000510c2 	srl	v0,a1,0x3
    1d00:	30420007 	andi	v0,v0,0x7
    1d04:	30a80007 	andi	t0,a1,0x7
    1d08:	24060001 	li	a2,1
    1d0c:	00621821 	addu	v1,v1,v0
    1d10:	906a0000 	lbu	t2,0(v1)
    1d14:	00463804 	sllv	a3,a2,v0
    1d18:	3c090001 	lui	t1,0x1
    1d1c:	01063004 	sllv	a2,a2,t0
    1d20:	30e700ff 	andi	a3,a3,0xff
    1d24:	30c600ff 	andi	a2,a2,0xff
    1d28:	00056080 	sll	t4,a1,0x2
    1d2c:	25298d20 	addiu	t1,t1,-29408
    1d30:	01675825 	or	t3,t3,a3
    1d34:	00ca5025 	or	t2,a2,t2
    1d38:	01894821 	addu	t1,t4,t1
    1d3c:	a0850036 	sb	a1,54(a0)
    1d40:	a0820038 	sb	v0,56(a0)
    1d44:	a0880037 	sb	t0,55(a0)
    1d48:	a087003a 	sb	a3,58(a0)
    1d4c:	a0860039 	sb	a2,57(a0)
    1d50:	a3857477 	sb	a1,29815(gp)
    1d54:	a38b74a0 	sb	t3,29856(gp)
    1d58:	a06a0000 	sb	t2,0(v1)
    1d5c:	03e00008 	jr	ra
    1d60:	ad240000 	sw	a0,0(t1)
    1d64:	0800073f 	j	1cfc <OSMutex_RdyAtPrio+0x34>
    1d68:	938b74a0 	lbu	t3,29856(gp)

00001d6c <OSMutexAccept>:
    1d6c:	27bdffd8 	addiu	sp,sp,-40
    1d70:	afbf0024 	sw	ra,36(sp)
    1d74:	90820000 	lbu	v0,0(a0)
    1d78:	24030004 	li	v1,4
    1d7c:	afa00010 	sw	zero,16(sp)
    1d80:	10430006 	beq	v0,v1,1d9c <OSMutexAccept+0x30>
    1d84:	24020001 	li	v0,1
    1d88:	a0a20000 	sb	v0,0(a1)
    1d8c:	00001021 	move	v0,zero
    1d90:	8fbf0024 	lw	ra,36(sp)
    1d94:	03e00008 	jr	ra
    1d98:	27bd0028 	addiu	sp,sp,40
    1d9c:	938274b0 	lbu	v0,29872(gp)
    1da0:	10400006 	beqz	v0,1dbc <OSMutexAccept+0x50>
    1da4:	24020002 	li	v0,2
    1da8:	a0a20000 	sb	v0,0(a1)
    1dac:	8fbf0024 	lw	ra,36(sp)
    1db0:	00001021 	move	v0,zero
    1db4:	03e00008 	jr	ra
    1db8:	27bd0028 	addiu	sp,sp,40
    1dbc:	afa40018 	sw	a0,24(sp)
    1dc0:	0c001b9b 	jal	6e6c <OS_CPU_SR_Save>
    1dc4:	afa5001c 	sw	a1,28(sp)
    1dc8:	8fa40018 	lw	a0,24(sp)
    1dcc:	afa20010 	sw	v0,16(sp)
    1dd0:	94830008 	lhu	v1,8(a0)
    1dd4:	240200ff 	li	v0,255
    1dd8:	306600ff 	andi	a2,v1,0xff
    1ddc:	14c20015 	bne	a2,v0,1e34 <OSMutexAccept+0xc8>
    1de0:	8fa5001c 	lw	a1,28(sp)
    1de4:	8f8274b4 	lw	v0,29876(gp)
    1de8:	3066ff00 	andi	a2,v1,0xff00
    1dec:	a4860008 	sh	a2,8(a0)
    1df0:	90470036 	lbu	a3,54(v0)
    1df4:	ac820004 	sw	v0,4(a0)
    1df8:	00c73025 	or	a2,a2,a3
    1dfc:	a4860008 	sh	a2,8(a0)
    1e00:	90420036 	lbu	v0,54(v0)
    1e04:	00031a02 	srl	v1,v1,0x8
    1e08:	0062182b 	sltu	v1,v1,v0
    1e0c:	8fa40010 	lw	a0,16(sp)
    1e10:	1460000f 	bnez	v1,1e50 <OSMutexAccept+0xe4>
    1e14:	afa5001c 	sw	a1,28(sp)
    1e18:	0c001ba2 	jal	6e88 <OS_CPU_SR_Restore>
    1e1c:	00000000 	nop
    1e20:	8fa5001c 	lw	a1,28(sp)
    1e24:	24020078 	li	v0,120
    1e28:	a0a20000 	sb	v0,0(a1)
    1e2c:	08000764 	j	1d90 <OSMutexAccept+0x24>
    1e30:	24020001 	li	v0,1
    1e34:	8fa40010 	lw	a0,16(sp)
    1e38:	0c001ba2 	jal	6e88 <OS_CPU_SR_Restore>
    1e3c:	afa5001c 	sw	a1,28(sp)
    1e40:	8fa5001c 	lw	a1,28(sp)
    1e44:	00001021 	move	v0,zero
    1e48:	08000764 	j	1d90 <OSMutexAccept+0x24>
    1e4c:	a0a00000 	sb	zero,0(a1)
    1e50:	0c001ba2 	jal	6e88 <OS_CPU_SR_Restore>
    1e54:	00000000 	nop
    1e58:	8fa5001c 	lw	a1,28(sp)
    1e5c:	24020001 	li	v0,1
    1e60:	08000764 	j	1d90 <OSMutexAccept+0x24>
    1e64:	a0a00000 	sb	zero,0(a1)

00001e68 <OSMutexCreate>:
    1e68:	938274b0 	lbu	v0,29872(gp)
    1e6c:	27bdffd8 	addiu	sp,sp,-40
    1e70:	afb20020 	sw	s2,32(sp)
    1e74:	afb1001c 	sw	s1,28(sp)
    1e78:	afbf0024 	sw	ra,36(sp)
    1e7c:	afb00018 	sw	s0,24(sp)
    1e80:	00a09021 	move	s2,a1
    1e84:	309100ff 	andi	s1,a0,0xff
    1e88:	afa00010 	sw	zero,16(sp)
    1e8c:	14400025 	bnez	v0,1f24 <OSMutexCreate+0xbc>
    1e90:	8fbf0024 	lw	ra,36(sp)
    1e94:	0c001b9b 	jal	6e6c <OS_CPU_SR_Save>
    1e98:	00000000 	nop
    1e9c:	3c040001 	lui	a0,0x1
    1ea0:	24848d20 	addiu	a0,a0,-29408
    1ea4:	00111880 	sll	v1,s1,0x2
    1ea8:	00641821 	addu	v1,v1,a0
    1eac:	8c640000 	lw	a0,0(v1)
    1eb0:	afa20010 	sw	v0,16(sp)
    1eb4:	14800023 	bnez	a0,1f44 <OSMutexCreate+0xdc>
    1eb8:	8f9074ac 	lw	s0,29868(gp)
    1ebc:	24020001 	li	v0,1
    1ec0:	ac620000 	sw	v0,0(v1)
    1ec4:	8fa40010 	lw	a0,16(sp)
    1ec8:	1200002a 	beqz	s0,1f74 <OSMutexCreate+0x10c>
    1ecc:	00118a00 	sll	s1,s1,0x8
    1ed0:	8e020004 	lw	v0,4(s0)
    1ed4:	0c001ba2 	jal	6e88 <OS_CPU_SR_Restore>
    1ed8:	af8274ac 	sw	v0,29868(gp)
    1edc:	24020004 	li	v0,4
    1ee0:	a2020000 	sb	v0,0(s0)
    1ee4:	3c020000 	lui	v0,0x0
    1ee8:	24427404 	addiu	v0,v0,29700
    1eec:	363100ff 	ori	s1,s1,0xff
    1ef0:	ae020014 	sw	v0,20(s0)
    1ef4:	a6110008 	sh	s1,8(s0)
    1ef8:	ae000004 	sw	zero,4(s0)
    1efc:	0c001864 	jal	6190 <OS_EventWaitListInit>
    1f00:	02002021 	move	a0,s0
    1f04:	a2400000 	sb	zero,0(s2)
    1f08:	02001021 	move	v0,s0
    1f0c:	8fbf0024 	lw	ra,36(sp)
    1f10:	8fb20020 	lw	s2,32(sp)
    1f14:	8fb1001c 	lw	s1,28(sp)
    1f18:	8fb00018 	lw	s0,24(sp)
    1f1c:	03e00008 	jr	ra
    1f20:	27bd0028 	addiu	sp,sp,40
    1f24:	24020010 	li	v0,16
    1f28:	8fb20020 	lw	s2,32(sp)
    1f2c:	8fb1001c 	lw	s1,28(sp)
    1f30:	8fb00018 	lw	s0,24(sp)
    1f34:	a0a20000 	sb	v0,0(a1)
    1f38:	00001021 	move	v0,zero
    1f3c:	03e00008 	jr	ra
    1f40:	27bd0028 	addiu	sp,sp,40
    1f44:	8fa40010 	lw	a0,16(sp)
    1f48:	0c001ba2 	jal	6e88 <OS_CPU_SR_Restore>
    1f4c:	00000000 	nop
    1f50:	24020028 	li	v0,40
    1f54:	a2420000 	sb	v0,0(s2)
    1f58:	8fbf0024 	lw	ra,36(sp)
    1f5c:	8fb20020 	lw	s2,32(sp)
    1f60:	8fb1001c 	lw	s1,28(sp)
    1f64:	8fb00018 	lw	s0,24(sp)
    1f68:	00001021 	move	v0,zero
    1f6c:	03e00008 	jr	ra
    1f70:	27bd0028 	addiu	sp,sp,40
    1f74:	0c001ba2 	jal	6e88 <OS_CPU_SR_Restore>
    1f78:	ac600000 	sw	zero,0(v1)
    1f7c:	24020004 	li	v0,4
    1f80:	a2420000 	sb	v0,0(s2)
    1f84:	080007c3 	j	1f0c <OSMutexCreate+0xa4>
    1f88:	00001021 	move	v0,zero

00001f8c <OSMutexDel>:
    1f8c:	27bdffd0 	addiu	sp,sp,-48
    1f90:	afb20024 	sw	s2,36(sp)
    1f94:	afb10020 	sw	s1,32(sp)
    1f98:	afb0001c 	sw	s0,28(sp)
    1f9c:	afbf002c 	sw	ra,44(sp)
    1fa0:	afb30028 	sw	s3,40(sp)
    1fa4:	90820000 	lbu	v0,0(a0)
    1fa8:	24030004 	li	v1,4
    1fac:	00808021 	move	s0,a0
    1fb0:	00c08821 	move	s1,a2
    1fb4:	30b200ff 	andi	s2,a1,0xff
    1fb8:	afa00010 	sw	zero,16(sp)
    1fbc:	1043000a 	beq	v0,v1,1fe8 <OSMutexDel+0x5c>
    1fc0:	24020001 	li	v0,1
    1fc4:	a0c20000 	sb	v0,0(a2)
    1fc8:	8fbf002c 	lw	ra,44(sp)
    1fcc:	02001021 	move	v0,s0
    1fd0:	8fb30028 	lw	s3,40(sp)
    1fd4:	8fb20024 	lw	s2,36(sp)
    1fd8:	8fb10020 	lw	s1,32(sp)
    1fdc:	8fb0001c 	lw	s0,28(sp)
    1fe0:	03e00008 	jr	ra
    1fe4:	27bd0030 	addiu	sp,sp,48
    1fe8:	938274b0 	lbu	v0,29872(gp)
    1fec:	1040000a 	beqz	v0,2018 <OSMutexDel+0x8c>
    1ff0:	2402000f 	li	v0,15
    1ff4:	a0c20000 	sb	v0,0(a2)
    1ff8:	8fbf002c 	lw	ra,44(sp)
    1ffc:	02001021 	move	v0,s0
    2000:	8fb30028 	lw	s3,40(sp)
    2004:	8fb20024 	lw	s2,36(sp)
    2008:	8fb10020 	lw	s1,32(sp)
    200c:	8fb0001c 	lw	s0,28(sp)
    2010:	03e00008 	jr	ra
    2014:	27bd0030 	addiu	sp,sp,48
    2018:	0c001b9b 	jal	6e6c <OS_CPU_SR_Save>
    201c:	00000000 	nop
    2020:	9203000a 	lbu	v1,10(s0)
    2024:	afa20010 	sw	v0,16(sp)
    2028:	12400038 	beqz	s2,210c <OSMutexDel+0x180>
    202c:	0003982b 	sltu	s3,zero,v1
    2030:	24020001 	li	v0,1
    2034:	16420027 	bne	s2,v0,20d4 <OSMutexDel+0x148>
    2038:	00000000 	nop
    203c:	96050008 	lhu	a1,8(s0)
    2040:	8e040004 	lw	a0,4(s0)
    2044:	10800004 	beqz	a0,2058 <OSMutexDel+0xcc>
    2048:	00051202 	srl	v0,a1,0x8
    204c:	90860036 	lbu	a2,54(a0)
    2050:	10c2002a 	beq	a2,v0,20fc <OSMutexDel+0x170>
    2054:	00000000 	nop
    2058:	10600008 	beqz	v1,207c <OSMutexDel+0xf0>
    205c:	02002021 	move	a0,s0
    2060:	00002821 	move	a1,zero
    2064:	24060010 	li	a2,16
    2068:	0c001824 	jal	6090 <OS_EventTaskRdy>
    206c:	00003821 	move	a3,zero
    2070:	9202000a 	lbu	v0,10(s0)
    2074:	1440fffa 	bnez	v0,2060 <OSMutexDel+0xd4>
    2078:	02002021 	move	a0,s0
    207c:	96030008 	lhu	v1,8(s0)
    2080:	3c020001 	lui	v0,0x1
    2084:	00031a02 	srl	v1,v1,0x8
    2088:	00031880 	sll	v1,v1,0x2
    208c:	24428d20 	addiu	v0,v0,-29408
    2090:	00621021 	addu	v0,v1,v0
    2094:	3c030000 	lui	v1,0x0
    2098:	24637404 	addiu	v1,v1,29700
    209c:	ae030014 	sw	v1,20(s0)
    20a0:	ac400000 	sw	zero,0(v0)
    20a4:	a2000000 	sb	zero,0(s0)
    20a8:	8f8274ac 	lw	v0,29868(gp)
    20ac:	8fa40010 	lw	a0,16(sp)
    20b0:	ae020004 	sw	v0,4(s0)
    20b4:	a6000008 	sh	zero,8(s0)
    20b8:	0c001ba2 	jal	6e88 <OS_CPU_SR_Restore>
    20bc:	af9074ac 	sw	s0,29868(gp)
    20c0:	1660000a 	bnez	s3,20ec <OSMutexDel+0x160>
    20c4:	00000000 	nop
    20c8:	a2200000 	sb	zero,0(s1)
    20cc:	080007f2 	j	1fc8 <OSMutexDel+0x3c>
    20d0:	00008021 	move	s0,zero
    20d4:	8fa40010 	lw	a0,16(sp)
    20d8:	0c001ba2 	jal	6e88 <OS_CPU_SR_Restore>
    20dc:	00000000 	nop
    20e0:	24020007 	li	v0,7
    20e4:	080007f2 	j	1fc8 <OSMutexDel+0x3c>
    20e8:	a2220000 	sb	v0,0(s1)
    20ec:	0c001883 	jal	620c <OS_Sched>
    20f0:	00008021 	move	s0,zero
    20f4:	080007f2 	j	1fc8 <OSMutexDel+0x3c>
    20f8:	a2200000 	sb	zero,0(s1)
    20fc:	0c000732 	jal	1cc8 <OSMutex_RdyAtPrio>
    2100:	30a500ff 	andi	a1,a1,0xff
    2104:	08000816 	j	2058 <OSMutexDel+0xcc>
    2108:	9203000a 	lbu	v1,10(s0)
    210c:	16600014 	bnez	s3,2160 <OSMutexDel+0x1d4>
    2110:	3c020001 	lui	v0,0x1
    2114:	96030008 	lhu	v1,8(s0)
    2118:	00031a02 	srl	v1,v1,0x8
    211c:	00031880 	sll	v1,v1,0x2
    2120:	24428d20 	addiu	v0,v0,-29408
    2124:	00621021 	addu	v0,v1,v0
    2128:	3c030000 	lui	v1,0x0
    212c:	24637404 	addiu	v1,v1,29700
    2130:	ae030014 	sw	v1,20(s0)
    2134:	ac400000 	sw	zero,0(v0)
    2138:	a2000000 	sb	zero,0(s0)
    213c:	8f8274ac 	lw	v0,29868(gp)
    2140:	8fa40010 	lw	a0,16(sp)
    2144:	ae020004 	sw	v0,4(s0)
    2148:	a6000008 	sh	zero,8(s0)
    214c:	0c001ba2 	jal	6e88 <OS_CPU_SR_Restore>
    2150:	af9074ac 	sw	s0,29868(gp)
    2154:	00008021 	move	s0,zero
    2158:	080007f2 	j	1fc8 <OSMutexDel+0x3c>
    215c:	a2200000 	sb	zero,0(s1)
    2160:	8fa40010 	lw	a0,16(sp)
    2164:	0c001ba2 	jal	6e88 <OS_CPU_SR_Restore>
    2168:	00000000 	nop
    216c:	24020049 	li	v0,73
    2170:	080007f2 	j	1fc8 <OSMutexDel+0x3c>
    2174:	a2220000 	sb	v0,0(s1)

00002178 <OSMutexPend>:
    2178:	27bdffd8 	addiu	sp,sp,-40
    217c:	afb00020 	sw	s0,32(sp)
    2180:	afbf0024 	sw	ra,36(sp)
    2184:	90820000 	lbu	v0,0(a0)
    2188:	24030004 	li	v1,4
    218c:	00808021 	move	s0,a0
    2190:	afa00010 	sw	zero,16(sp)
    2194:	10430006 	beq	v0,v1,21b0 <OSMutexPend+0x38>
    2198:	24020001 	li	v0,1
    219c:	a0c20000 	sb	v0,0(a2)
    21a0:	8fbf0024 	lw	ra,36(sp)
    21a4:	8fb00020 	lw	s0,32(sp)
    21a8:	03e00008 	jr	ra
    21ac:	27bd0028 	addiu	sp,sp,40
    21b0:	938274b0 	lbu	v0,29872(gp)
    21b4:	14400043 	bnez	v0,22c4 <OSMutexPend+0x14c>
    21b8:	93827464 	lbu	v0,29796(gp)
    21bc:	10400006 	beqz	v0,21d8 <OSMutexPend+0x60>
    21c0:	2402000d 	li	v0,13
    21c4:	a0c20000 	sb	v0,0(a2)
    21c8:	8fbf0024 	lw	ra,36(sp)
    21cc:	8fb00020 	lw	s0,32(sp)
    21d0:	03e00008 	jr	ra
    21d4:	27bd0028 	addiu	sp,sp,40
    21d8:	afa50018 	sw	a1,24(sp)
    21dc:	0c001b9b 	jal	6e6c <OS_CPU_SR_Save>
    21e0:	afa6001c 	sw	a2,28(sp)
    21e4:	96030008 	lhu	v1,8(s0)
    21e8:	afa20010 	sw	v0,16(sp)
    21ec:	306700ff 	andi	a3,v1,0xff
    21f0:	240200ff 	li	v0,255
    21f4:	00032202 	srl	a0,v1,0x8
    21f8:	8fa50018 	lw	a1,24(sp)
    21fc:	10e20058 	beq	a3,v0,2360 <OSMutexPend+0x1e8>
    2200:	8fa6001c 	lw	a2,28(sp)
    2204:	8e030004 	lw	v1,4(s0)
    2208:	90620036 	lbu	v0,54(v1)
    220c:	0082102b 	sltu	v0,a0,v0
    2210:	10400032 	beqz	v0,22dc <OSMutexPend+0x164>
    2214:	8f8274b4 	lw	v0,29876(gp)
    2218:	90480036 	lbu	t0,54(v0)
    221c:	0107382b 	sltu	a3,t0,a3
    2220:	10e0002e 	beqz	a3,22dc <OSMutexPend+0x164>
    2224:	278874a4 	addiu	t0,gp,29860
    2228:	906b0038 	lbu	t3,56(v1)
    222c:	010b4821 	addu	t1,t0,t3
    2230:	912a0000 	lbu	t2,0(t1)
    2234:	90670039 	lbu	a3,57(v1)
    2238:	01476024 	and	t4,t2,a3
    223c:	11800069 	beqz	t4,23e4 <OSMutexPend+0x26c>
    2240:	00000000 	nop
    2244:	00073827 	nor	a3,zero,a3
    2248:	01475024 	and	t2,t2,a3
    224c:	15400089 	bnez	t2,2474 <OSMutexPend+0x2fc>
    2250:	a12a0000 	sb	t2,0(t1)
    2254:	906d003a 	lbu	t5,58(v1)
    2258:	938774a0 	lbu	a3,29856(gp)
    225c:	000d6827 	nor	t5,zero,t5
    2260:	01a76824 	and	t5,t5,a3
    2264:	000438c2 	srl	a3,a0,0x3
    2268:	308b0007 	andi	t3,a0,0x7
    226c:	24090001 	li	t1,1
    2270:	01074021 	addu	t0,t0,a3
    2274:	910c0000 	lbu	t4,0(t0)
    2278:	00e95004 	sllv	t2,t1,a3
    227c:	01694804 	sllv	t1,t1,t3
    2280:	314a00ff 	andi	t2,t2,0xff
    2284:	312900ff 	andi	t1,t1,0xff
    2288:	01aa6825 	or	t5,t5,t2
    228c:	012c6025 	or	t4,t1,t4
    2290:	a0640036 	sb	a0,54(v1)
    2294:	a0670038 	sb	a3,56(v1)
    2298:	a06b0037 	sb	t3,55(v1)
    229c:	a06a003a 	sb	t2,58(v1)
    22a0:	a0690039 	sb	t1,57(v1)
    22a4:	a38d74a0 	sb	t5,29856(gp)
    22a8:	a10c0000 	sb	t4,0(t0)
    22ac:	3c070001 	lui	a3,0x1
    22b0:	00042080 	sll	a0,a0,0x2
    22b4:	24e78d20 	addiu	a3,a3,-29408
    22b8:	00872021 	addu	a0,a0,a3
    22bc:	080008b7 	j	22dc <OSMutexPend+0x164>
    22c0:	ac830000 	sw	v1,0(a0)
    22c4:	24020002 	li	v0,2
    22c8:	a0c20000 	sb	v0,0(a2)
    22cc:	8fbf0024 	lw	ra,36(sp)
    22d0:	8fb00020 	lw	s0,32(sp)
    22d4:	03e00008 	jr	ra
    22d8:	27bd0028 	addiu	sp,sp,40
    22dc:	90430034 	lbu	v1,52(v0)
    22e0:	a0400035 	sb	zero,53(v0)
    22e4:	34630010 	ori	v1,v1,0x10
    22e8:	a0430034 	sb	v1,52(v0)
    22ec:	ac450030 	sw	a1,48(v0)
    22f0:	02002021 	move	a0,s0
    22f4:	0c0017be 	jal	5ef8 <OS_EventTaskWait>
    22f8:	afa6001c 	sw	a2,28(sp)
    22fc:	8fa40010 	lw	a0,16(sp)
    2300:	0c001ba2 	jal	6e88 <OS_CPU_SR_Restore>
    2304:	00000000 	nop
    2308:	0c001883 	jal	620c <OS_Sched>
    230c:	00000000 	nop
    2310:	0c001b9b 	jal	6e6c <OS_CPU_SR_Save>
    2314:	00000000 	nop
    2318:	8f8474b4 	lw	a0,29876(gp)
    231c:	afa20010 	sw	v0,16(sp)
    2320:	90820035 	lbu	v0,53(a0)
    2324:	10400027 	beqz	v0,23c4 <OSMutexPend+0x24c>
    2328:	8fa6001c 	lw	a2,28(sp)
    232c:	24030002 	li	v1,2
    2330:	1443001d 	bne	v0,v1,23a8 <OSMutexPend+0x230>
    2334:	2402000e 	li	v0,14
    2338:	a0c20000 	sb	v0,0(a2)
    233c:	8f8274b4 	lw	v0,29876(gp)
    2340:	8fa40010 	lw	a0,16(sp)
    2344:	a0400034 	sb	zero,52(v0)
    2348:	a0400035 	sb	zero,53(v0)
    234c:	ac40001c 	sw	zero,28(v0)
    2350:	0c001ba2 	jal	6e88 <OS_CPU_SR_Restore>
    2354:	ac400020 	sw	zero,32(v0)
    2358:	08000869 	j	21a4 <OSMutexPend+0x2c>
    235c:	8fbf0024 	lw	ra,36(sp)
    2360:	8f8274b4 	lw	v0,29876(gp)
    2364:	3063ff00 	andi	v1,v1,0xff00
    2368:	a6030008 	sh	v1,8(s0)
    236c:	90450036 	lbu	a1,54(v0)
    2370:	ae020004 	sw	v0,4(s0)
    2374:	00651825 	or	v1,v1,a1
    2378:	a6030008 	sh	v1,8(s0)
    237c:	90420036 	lbu	v0,54(v0)
    2380:	0082202b 	sltu	a0,a0,v0
    2384:	14800011 	bnez	a0,23cc <OSMutexPend+0x254>
    2388:	00000000 	nop
    238c:	8fa40010 	lw	a0,16(sp)
    2390:	0c001ba2 	jal	6e88 <OS_CPU_SR_Restore>
    2394:	afa6001c 	sw	a2,28(sp)
    2398:	8fa6001c 	lw	a2,28(sp)
    239c:	24020078 	li	v0,120
    23a0:	08000868 	j	21a0 <OSMutexPend+0x28>
    23a4:	a0c20000 	sb	v0,0(a2)
    23a8:	02002821 	move	a1,s0
    23ac:	0c0017ff 	jal	5ffc <OS_EventTaskRemove>
    23b0:	afa6001c 	sw	a2,28(sp)
    23b4:	8fa6001c 	lw	a2,28(sp)
    23b8:	2402000a 	li	v0,10
    23bc:	080008cf 	j	233c <OSMutexPend+0x1c4>
    23c0:	a0c20000 	sb	v0,0(a2)
    23c4:	080008cf 	j	233c <OSMutexPend+0x1c4>
    23c8:	a0c00000 	sb	zero,0(a2)
    23cc:	8fa40010 	lw	a0,16(sp)
    23d0:	0c001ba2 	jal	6e88 <OS_CPU_SR_Restore>
    23d4:	afa6001c 	sw	a2,28(sp)
    23d8:	8fa6001c 	lw	a2,28(sp)
    23dc:	08000868 	j	21a0 <OSMutexPend+0x28>
    23e0:	a0c00000 	sb	zero,0(a2)
    23e4:	8c68001c 	lw	t0,28(v1)
    23e8:	11000024 	beqz	t0,247c <OSMutexPend+0x304>
    23ec:	010b5821 	addu	t3,t0,t3
    23f0:	9169000b 	lbu	t1,11(t3)
    23f4:	00073827 	nor	a3,zero,a3
    23f8:	00e93824 	and	a3,a3,t1
    23fc:	14e00006 	bnez	a3,2418 <OSMutexPend+0x2a0>
    2400:	a167000b 	sb	a3,11(t3)
    2404:	9069003a 	lbu	t1,58(v1)
    2408:	9107000a 	lbu	a3,10(t0)
    240c:	00094827 	nor	t1,zero,t1
    2410:	01273824 	and	a3,t1,a3
    2414:	a107000a 	sb	a3,10(t0)
    2418:	000450c2 	srl	t2,a0,0x3
    241c:	240b0001 	li	t3,1
    2420:	30890007 	andi	t1,a0,0x7
    2424:	014b4004 	sllv	t0,t3,t2
    2428:	8c67001c 	lw	a3,28(v1)
    242c:	310800ff 	andi	t0,t0,0xff
    2430:	012b5804 	sllv	t3,t3,t1
    2434:	a0640036 	sb	a0,54(v1)
    2438:	a06a0038 	sb	t2,56(v1)
    243c:	a0690037 	sb	t1,55(v1)
    2440:	a068003a 	sb	t0,58(v1)
    2444:	10e0ff99 	beqz	a3,22ac <OSMutexPend+0x134>
    2448:	a06b0039 	sb	t3,57(v1)
    244c:	90e9000a 	lbu	t1,10(a3)
    2450:	01094025 	or	t0,t0,t1
    2454:	a0e8000a 	sb	t0,10(a3)
    2458:	90690038 	lbu	t1,56(v1)
    245c:	90680039 	lbu	t0,57(v1)
    2460:	00e93821 	addu	a3,a3,t1
    2464:	90e9000b 	lbu	t1,11(a3)
    2468:	01284025 	or	t0,t1,t0
    246c:	080008ab 	j	22ac <OSMutexPend+0x134>
    2470:	a0e8000b 	sb	t0,11(a3)
    2474:	08000899 	j	2264 <OSMutexPend+0xec>
    2478:	938d74a0 	lbu	t5,29856(gp)
    247c:	000440c2 	srl	t0,a0,0x3
    2480:	30870007 	andi	a3,a0,0x7
    2484:	24090001 	li	t1,1
    2488:	01095004 	sllv	t2,t1,t0
    248c:	00e94804 	sllv	t1,t1,a3
    2490:	a0640036 	sb	a0,54(v1)
    2494:	a0680038 	sb	t0,56(v1)
    2498:	a0670037 	sb	a3,55(v1)
    249c:	a06a003a 	sb	t2,58(v1)
    24a0:	080008ab 	j	22ac <OSMutexPend+0x134>
    24a4:	a0690039 	sb	t1,57(v1)

000024a8 <OSMutexPost>:
    24a8:	938274b0 	lbu	v0,29872(gp)
    24ac:	27bdffd8 	addiu	sp,sp,-40
    24b0:	afbf0024 	sw	ra,36(sp)
    24b4:	afb20020 	sw	s2,32(sp)
    24b8:	afb1001c 	sw	s1,28(sp)
    24bc:	afb00018 	sw	s0,24(sp)
    24c0:	afa00010 	sw	zero,16(sp)
    24c4:	10400007 	beqz	v0,24e4 <OSMutexPost+0x3c>
    24c8:	24020005 	li	v0,5
    24cc:	8fbf0024 	lw	ra,36(sp)
    24d0:	8fb20020 	lw	s2,32(sp)
    24d4:	8fb1001c 	lw	s1,28(sp)
    24d8:	8fb00018 	lw	s0,24(sp)
    24dc:	03e00008 	jr	ra
    24e0:	27bd0028 	addiu	sp,sp,40
    24e4:	90830000 	lbu	v1,0(a0)
    24e8:	24020004 	li	v0,4
    24ec:	10620008 	beq	v1,v0,2510 <OSMutexPost+0x68>
    24f0:	00808021 	move	s0,a0
    24f4:	8fbf0024 	lw	ra,36(sp)
    24f8:	8fb20020 	lw	s2,32(sp)
    24fc:	8fb1001c 	lw	s1,28(sp)
    2500:	8fb00018 	lw	s0,24(sp)
    2504:	24020001 	li	v0,1
    2508:	03e00008 	jr	ra
    250c:	27bd0028 	addiu	sp,sp,40
    2510:	0c001b9b 	jal	6e6c <OS_CPU_SR_Save>
    2514:	00000000 	nop
    2518:	afa20010 	sw	v0,16(sp)
    251c:	8e040004 	lw	a0,4(s0)
    2520:	8f8274b4 	lw	v0,29876(gp)
    2524:	10820006 	beq	a0,v0,2540 <OSMutexPost+0x98>
    2528:	96050008 	lhu	a1,8(s0)
    252c:	8fa40010 	lw	a0,16(sp)
    2530:	0c001ba2 	jal	6e88 <OS_CPU_SR_Restore>
    2534:	00000000 	nop
    2538:	08000933 	j	24cc <OSMutexPost+0x24>
    253c:	24020064 	li	v0,100
    2540:	90820036 	lbu	v0,54(a0)
    2544:	00058a02 	srl	s1,a1,0x8
    2548:	1051002e 	beq	v0,s1,2604 <OSMutexPost+0x15c>
    254c:	00000000 	nop
    2550:	3c120001 	lui	s2,0x1
    2554:	00111080 	sll	v0,s1,0x2
    2558:	26528d20 	addiu	s2,s2,-29408
    255c:	00521021 	addu	v0,v0,s2
    2560:	24030001 	li	v1,1
    2564:	ac430000 	sw	v1,0(v0)
    2568:	9202000a 	lbu	v0,10(s0)
    256c:	10400017 	beqz	v0,25cc <OSMutexPost+0x124>
    2570:	00002821 	move	a1,zero
    2574:	02002021 	move	a0,s0
    2578:	24060010 	li	a2,16
    257c:	0c001824 	jal	6090 <OS_EventTaskRdy>
    2580:	00003821 	move	a3,zero
    2584:	00021880 	sll	v1,v0,0x2
    2588:	96040008 	lhu	a0,8(s0)
    258c:	00729021 	addu	s2,v1,s2
    2590:	8e430000 	lw	v1,0(s2)
    2594:	3084ff00 	andi	a0,a0,0xff00
    2598:	00442025 	or	a0,v0,a0
    259c:	0222102b 	sltu	v0,s1,v0
    25a0:	a6040008 	sh	a0,8(s0)
    25a4:	ae030004 	sw	v1,4(s0)
    25a8:	8fa40010 	lw	a0,16(sp)
    25ac:	1440000f 	bnez	v0,25ec <OSMutexPost+0x144>
    25b0:	00000000 	nop
    25b4:	0c001ba2 	jal	6e88 <OS_CPU_SR_Restore>
    25b8:	00000000 	nop
    25bc:	0c001883 	jal	620c <OS_Sched>
    25c0:	00000000 	nop
    25c4:	08000933 	j	24cc <OSMutexPost+0x24>
    25c8:	24020078 	li	v0,120
    25cc:	96020008 	lhu	v0,8(s0)
    25d0:	8fa40010 	lw	a0,16(sp)
    25d4:	344200ff 	ori	v0,v0,0xff
    25d8:	a6020008 	sh	v0,8(s0)
    25dc:	0c001ba2 	jal	6e88 <OS_CPU_SR_Restore>
    25e0:	ae000004 	sw	zero,4(s0)
    25e4:	08000933 	j	24cc <OSMutexPost+0x24>
    25e8:	00001021 	move	v0,zero
    25ec:	0c001ba2 	jal	6e88 <OS_CPU_SR_Restore>
    25f0:	00000000 	nop
    25f4:	0c001883 	jal	620c <OS_Sched>
    25f8:	00000000 	nop
    25fc:	08000933 	j	24cc <OSMutexPost+0x24>
    2600:	00001021 	move	v0,zero
    2604:	0c000732 	jal	1cc8 <OSMutex_RdyAtPrio>
    2608:	30a500ff 	andi	a1,a1,0xff
    260c:	08000955 	j	2554 <OSMutexPost+0xac>
    2610:	3c120001 	lui	s2,0x1

00002614 <OSMutexQuery>:
    2614:	938274b0 	lbu	v0,29872(gp)
    2618:	27bdffd8 	addiu	sp,sp,-40
    261c:	afbf0024 	sw	ra,36(sp)
    2620:	afa00010 	sw	zero,16(sp)
    2624:	10400004 	beqz	v0,2638 <OSMutexQuery+0x24>
    2628:	24020006 	li	v0,6
    262c:	8fbf0024 	lw	ra,36(sp)
    2630:	03e00008 	jr	ra
    2634:	27bd0028 	addiu	sp,sp,40
    2638:	90830000 	lbu	v1,0(a0)
    263c:	24020004 	li	v0,4
    2640:	10620004 	beq	v1,v0,2654 <OSMutexQuery+0x40>
    2644:	8fbf0024 	lw	ra,36(sp)
    2648:	24020001 	li	v0,1
    264c:	03e00008 	jr	ra
    2650:	27bd0028 	addiu	sp,sp,40
    2654:	afa40018 	sw	a0,24(sp)
    2658:	0c001b9b 	jal	6e6c <OS_CPU_SR_Save>
    265c:	afa5001c 	sw	a1,28(sp)
    2660:	8fa40018 	lw	a0,24(sp)
    2664:	8fa5001c 	lw	a1,28(sp)
    2668:	94830008 	lhu	v1,8(a0)
    266c:	afa20010 	sw	v0,16(sp)
    2670:	00031a02 	srl	v1,v1,0x8
    2674:	a0a3000b 	sb	v1,11(a1)
    2678:	90830009 	lbu	v1,9(a0)
    267c:	240200ff 	li	v0,255
    2680:	10620010 	beq	v1,v0,26c4 <OSMutexQuery+0xb0>
    2684:	a0a3000a 	sb	v1,10(a1)
    2688:	a0a00009 	sb	zero,9(a1)
    268c:	9083000a 	lbu	v1,10(a0)
    2690:	2482000b 	addiu	v0,a0,11
    2694:	a0a30008 	sb	v1,8(a1)
    2698:	24840013 	addiu	a0,a0,19
    269c:	24420001 	addiu	v0,v0,1
    26a0:	9043ffff 	lbu	v1,-1(v0)
    26a4:	24a50001 	addiu	a1,a1,1
    26a8:	1444fffc 	bne	v0,a0,269c <OSMutexQuery+0x88>
    26ac:	a0a3ffff 	sb	v1,-1(a1)
    26b0:	8fa40010 	lw	a0,16(sp)
    26b4:	0c001ba2 	jal	6e88 <OS_CPU_SR_Restore>
    26b8:	00000000 	nop
    26bc:	0800098b 	j	262c <OSMutexQuery+0x18>
    26c0:	00001021 	move	v0,zero
    26c4:	24020001 	li	v0,1
    26c8:	080009a3 	j	268c <OSMutexQuery+0x78>
    26cc:	a0a20009 	sb	v0,9(a1)

000026d0 <OSQAccept>:
    26d0:	27bdffd8 	addiu	sp,sp,-40
    26d4:	afb10020 	sw	s1,32(sp)
    26d8:	afb0001c 	sw	s0,28(sp)
    26dc:	afbf0024 	sw	ra,36(sp)
    26e0:	90820000 	lbu	v0,0(a0)
    26e4:	24030002 	li	v1,2
    26e8:	00808021 	move	s0,a0
    26ec:	00a08821 	move	s1,a1
    26f0:	afa00010 	sw	zero,16(sp)
    26f4:	1443001d 	bne	v0,v1,276c <OSQAccept+0x9c>
    26f8:	24020001 	li	v0,1
    26fc:	0c001b9b 	jal	6e6c <OS_CPU_SR_Save>
    2700:	00000000 	nop
    2704:	8e030004 	lw	v1,4(s0)
    2708:	afa20010 	sw	v0,16(sp)
    270c:	94620016 	lhu	v0,22(v1)
    2710:	1440000d 	bnez	v0,2748 <OSQAccept+0x78>
    2714:	2442ffff 	addiu	v0,v0,-1
    2718:	2402001f 	li	v0,31
    271c:	a2220000 	sb	v0,0(s1)
    2720:	00008021 	move	s0,zero
    2724:	8fa40010 	lw	a0,16(sp)
    2728:	0c001ba2 	jal	6e88 <OS_CPU_SR_Restore>
    272c:	00000000 	nop
    2730:	8fbf0024 	lw	ra,36(sp)
    2734:	02001021 	move	v0,s0
    2738:	8fb10020 	lw	s1,32(sp)
    273c:	8fb0001c 	lw	s0,28(sp)
    2740:	03e00008 	jr	ra
    2744:	27bd0028 	addiu	sp,sp,40
    2748:	8c650010 	lw	a1,16(v1)
    274c:	8c660008 	lw	a2,8(v1)
    2750:	24a40004 	addiu	a0,a1,4
    2754:	ac640010 	sw	a0,16(v1)
    2758:	8cb00000 	lw	s0,0(a1)
    275c:	1086000a 	beq	a0,a2,2788 <OSQAccept+0xb8>
    2760:	a4620016 	sh	v0,22(v1)
    2764:	080009c9 	j	2724 <OSQAccept+0x54>
    2768:	a2200000 	sb	zero,0(s1)
    276c:	a0a20000 	sb	v0,0(a1)
    2770:	8fbf0024 	lw	ra,36(sp)
    2774:	8fb10020 	lw	s1,32(sp)
    2778:	8fb0001c 	lw	s0,28(sp)
    277c:	00001021 	move	v0,zero
    2780:	03e00008 	jr	ra
    2784:	27bd0028 	addiu	sp,sp,40
    2788:	8c620004 	lw	v0,4(v1)
    278c:	ac620010 	sw	v0,16(v1)
    2790:	080009c9 	j	2724 <OSQAccept+0x54>
    2794:	a2200000 	sb	zero,0(s1)

00002798 <OSQCreate>:
    2798:	938274b0 	lbu	v0,29872(gp)
    279c:	27bdffd0 	addiu	sp,sp,-48
    27a0:	afb30028 	sw	s3,40(sp)
    27a4:	afbf002c 	sw	ra,44(sp)
    27a8:	afb20024 	sw	s2,36(sp)
    27ac:	afb10020 	sw	s1,32(sp)
    27b0:	afb0001c 	sw	s0,28(sp)
    27b4:	30b3ffff 	andi	s3,a1,0xffff
    27b8:	afa00010 	sw	zero,16(sp)
    27bc:	14400031 	bnez	v0,2884 <OSQCreate+0xec>
    27c0:	8fbf002c 	lw	ra,44(sp)
    27c4:	0c001b9b 	jal	6e6c <OS_CPU_SR_Save>
    27c8:	00809021 	move	s2,a0
    27cc:	8f9074ac 	lw	s0,29868(gp)
    27d0:	afa20010 	sw	v0,16(sp)
    27d4:	8fa40010 	lw	a0,16(sp)
    27d8:	12000027 	beqz	s0,2878 <OSQCreate+0xe0>
    27dc:	00000000 	nop
    27e0:	8e020004 	lw	v0,4(s0)
    27e4:	0c001ba2 	jal	6e88 <OS_CPU_SR_Restore>
    27e8:	af8274ac 	sw	v0,29868(gp)
    27ec:	0c001b9b 	jal	6e6c <OS_CPU_SR_Save>
    27f0:	00000000 	nop
    27f4:	8f91749c 	lw	s1,29852(gp)
    27f8:	afa20010 	sw	v0,16(sp)
    27fc:	8fa40010 	lw	a0,16(sp)
    2800:	12200027 	beqz	s1,28a0 <OSQCreate+0x108>
    2804:	8f8274ac 	lw	v0,29868(gp)
    2808:	8e220000 	lw	v0,0(s1)
    280c:	0c001ba2 	jal	6e88 <OS_CPU_SR_Restore>
    2810:	af82749c 	sw	v0,29852(gp)
    2814:	00131080 	sll	v0,s3,0x2
    2818:	02421021 	addu	v0,s2,v0
    281c:	ae220008 	sw	v0,8(s1)
    2820:	24020002 	li	v0,2
    2824:	ae320004 	sw	s2,4(s1)
    2828:	ae32000c 	sw	s2,12(s1)
    282c:	ae320010 	sw	s2,16(s1)
    2830:	a6330014 	sh	s3,20(s1)
    2834:	a6200016 	sh	zero,22(s1)
    2838:	a2020000 	sb	v0,0(s0)
    283c:	3c020000 	lui	v0,0x0
    2840:	24427404 	addiu	v0,v0,29700
    2844:	ae020014 	sw	v0,20(s0)
    2848:	02002021 	move	a0,s0
    284c:	a6000008 	sh	zero,8(s0)
    2850:	0c001864 	jal	6190 <OS_EventWaitListInit>
    2854:	ae110004 	sw	s1,4(s0)
    2858:	02001021 	move	v0,s0
    285c:	8fbf002c 	lw	ra,44(sp)
    2860:	8fb30028 	lw	s3,40(sp)
    2864:	8fb20024 	lw	s2,36(sp)
    2868:	8fb10020 	lw	s1,32(sp)
    286c:	8fb0001c 	lw	s0,28(sp)
    2870:	03e00008 	jr	ra
    2874:	27bd0030 	addiu	sp,sp,48
    2878:	0c001ba2 	jal	6e88 <OS_CPU_SR_Restore>
    287c:	00000000 	nop
    2880:	8fbf002c 	lw	ra,44(sp)
    2884:	8fb30028 	lw	s3,40(sp)
    2888:	8fb20024 	lw	s2,36(sp)
    288c:	8fb10020 	lw	s1,32(sp)
    2890:	8fb0001c 	lw	s0,28(sp)
    2894:	00001021 	move	v0,zero
    2898:	03e00008 	jr	ra
    289c:	27bd0030 	addiu	sp,sp,48
    28a0:	af9074ac 	sw	s0,29868(gp)
    28a4:	0c001ba2 	jal	6e88 <OS_CPU_SR_Restore>
    28a8:	ae020004 	sw	v0,4(s0)
    28ac:	08000a17 	j	285c <OSQCreate+0xc4>
    28b0:	00001021 	move	v0,zero

000028b4 <OSQDel>:
    28b4:	27bdffd0 	addiu	sp,sp,-48
    28b8:	afb20024 	sw	s2,36(sp)
    28bc:	afb10020 	sw	s1,32(sp)
    28c0:	afb0001c 	sw	s0,28(sp)
    28c4:	afbf002c 	sw	ra,44(sp)
    28c8:	afb30028 	sw	s3,40(sp)
    28cc:	90820000 	lbu	v0,0(a0)
    28d0:	24030002 	li	v1,2
    28d4:	00808021 	move	s0,a0
    28d8:	00c08821 	move	s1,a2
    28dc:	30b200ff 	andi	s2,a1,0xff
    28e0:	afa00010 	sw	zero,16(sp)
    28e4:	1043000a 	beq	v0,v1,2910 <OSQDel+0x5c>
    28e8:	24020001 	li	v0,1
    28ec:	a0c20000 	sb	v0,0(a2)
    28f0:	8fbf002c 	lw	ra,44(sp)
    28f4:	02001021 	move	v0,s0
    28f8:	8fb30028 	lw	s3,40(sp)
    28fc:	8fb20024 	lw	s2,36(sp)
    2900:	8fb10020 	lw	s1,32(sp)
    2904:	8fb0001c 	lw	s0,28(sp)
    2908:	03e00008 	jr	ra
    290c:	27bd0030 	addiu	sp,sp,48
    2910:	938274b0 	lbu	v0,29872(gp)
    2914:	1040000a 	beqz	v0,2940 <OSQDel+0x8c>
    2918:	2402000f 	li	v0,15
    291c:	a0c20000 	sb	v0,0(a2)
    2920:	8fbf002c 	lw	ra,44(sp)
    2924:	02001021 	move	v0,s0
    2928:	8fb30028 	lw	s3,40(sp)
    292c:	8fb20024 	lw	s2,36(sp)
    2930:	8fb10020 	lw	s1,32(sp)
    2934:	8fb0001c 	lw	s0,28(sp)
    2938:	03e00008 	jr	ra
    293c:	27bd0030 	addiu	sp,sp,48
    2940:	0c001b9b 	jal	6e6c <OS_CPU_SR_Save>
    2944:	00000000 	nop
    2948:	9213000a 	lbu	s3,10(s0)
    294c:	afa20010 	sw	v0,16(sp)
    2950:	1240002b 	beqz	s2,2a00 <OSQDel+0x14c>
    2954:	0013982b 	sltu	s3,zero,s3
    2958:	24020001 	li	v0,1
    295c:	1642001e 	bne	s2,v0,29d8 <OSQDel+0x124>
    2960:	00000000 	nop
    2964:	1260000a 	beqz	s3,2990 <OSQDel+0xdc>
    2968:	3c030000 	lui	v1,0x0
    296c:	02002021 	move	a0,s0
    2970:	00002821 	move	a1,zero
    2974:	24060004 	li	a2,4
    2978:	0c001824 	jal	6090 <OS_EventTaskRdy>
    297c:	00003821 	move	a3,zero
    2980:	9202000a 	lbu	v0,10(s0)
    2984:	1440fffa 	bnez	v0,2970 <OSQDel+0xbc>
    2988:	02002021 	move	a0,s0
    298c:	3c030000 	lui	v1,0x0
    2990:	24637404 	addiu	v1,v1,29700
    2994:	8e020004 	lw	v0,4(s0)
    2998:	ae030014 	sw	v1,20(s0)
    299c:	8f83749c 	lw	v1,29852(gp)
    29a0:	8fa40010 	lw	a0,16(sp)
    29a4:	ac430000 	sw	v1,0(v0)
    29a8:	af82749c 	sw	v0,29852(gp)
    29ac:	a2000000 	sb	zero,0(s0)
    29b0:	8f8274ac 	lw	v0,29868(gp)
    29b4:	a6000008 	sh	zero,8(s0)
    29b8:	ae020004 	sw	v0,4(s0)
    29bc:	0c001ba2 	jal	6e88 <OS_CPU_SR_Restore>
    29c0:	af9074ac 	sw	s0,29868(gp)
    29c4:	1660000a 	bnez	s3,29f0 <OSQDel+0x13c>
    29c8:	00000000 	nop
    29cc:	a2200000 	sb	zero,0(s1)
    29d0:	08000a3c 	j	28f0 <OSQDel+0x3c>
    29d4:	00008021 	move	s0,zero
    29d8:	8fa40010 	lw	a0,16(sp)
    29dc:	0c001ba2 	jal	6e88 <OS_CPU_SR_Restore>
    29e0:	00000000 	nop
    29e4:	24020007 	li	v0,7
    29e8:	08000a3c 	j	28f0 <OSQDel+0x3c>
    29ec:	a2220000 	sb	v0,0(s1)
    29f0:	0c001883 	jal	620c <OS_Sched>
    29f4:	00008021 	move	s0,zero
    29f8:	08000a3c 	j	28f0 <OSQDel+0x3c>
    29fc:	a2200000 	sb	zero,0(s1)
    2a00:	16600011 	bnez	s3,2a48 <OSQDel+0x194>
    2a04:	3c030000 	lui	v1,0x0
    2a08:	24637404 	addiu	v1,v1,29700
    2a0c:	8e020004 	lw	v0,4(s0)
    2a10:	ae030014 	sw	v1,20(s0)
    2a14:	8f83749c 	lw	v1,29852(gp)
    2a18:	8fa40010 	lw	a0,16(sp)
    2a1c:	ac430000 	sw	v1,0(v0)
    2a20:	af82749c 	sw	v0,29852(gp)
    2a24:	a2000000 	sb	zero,0(s0)
    2a28:	8f8274ac 	lw	v0,29868(gp)
    2a2c:	a6000008 	sh	zero,8(s0)
    2a30:	ae020004 	sw	v0,4(s0)
    2a34:	0c001ba2 	jal	6e88 <OS_CPU_SR_Restore>
    2a38:	af9074ac 	sw	s0,29868(gp)
    2a3c:	00008021 	move	s0,zero
    2a40:	08000a3c 	j	28f0 <OSQDel+0x3c>
    2a44:	a2200000 	sb	zero,0(s1)
    2a48:	8fa40010 	lw	a0,16(sp)
    2a4c:	0c001ba2 	jal	6e88 <OS_CPU_SR_Restore>
    2a50:	00000000 	nop
    2a54:	24020049 	li	v0,73
    2a58:	08000a3c 	j	28f0 <OSQDel+0x3c>
    2a5c:	a2220000 	sb	v0,0(s1)

00002a60 <OSQFlush>:
    2a60:	27bdffe0 	addiu	sp,sp,-32
    2a64:	afb00018 	sw	s0,24(sp)
    2a68:	00808021 	move	s0,a0
    2a6c:	afbf001c 	sw	ra,28(sp)
    2a70:	afa00010 	sw	zero,16(sp)
    2a74:	0c001b9b 	jal	6e6c <OS_CPU_SR_Save>
    2a78:	00000000 	nop
    2a7c:	8e030004 	lw	v1,4(s0)
    2a80:	afa20010 	sw	v0,16(sp)
    2a84:	8c620004 	lw	v0,4(v1)
    2a88:	8fa40010 	lw	a0,16(sp)
    2a8c:	ac62000c 	sw	v0,12(v1)
    2a90:	ac620010 	sw	v0,16(v1)
    2a94:	0c001ba2 	jal	6e88 <OS_CPU_SR_Restore>
    2a98:	a4600016 	sh	zero,22(v1)
    2a9c:	8fbf001c 	lw	ra,28(sp)
    2aa0:	8fb00018 	lw	s0,24(sp)
    2aa4:	00001021 	move	v0,zero
    2aa8:	03e00008 	jr	ra
    2aac:	27bd0020 	addiu	sp,sp,32

00002ab0 <OSQPend>:
    2ab0:	27bdffd0 	addiu	sp,sp,-48
    2ab4:	afb20024 	sw	s2,36(sp)
    2ab8:	afb0001c 	sw	s0,28(sp)
    2abc:	afbf002c 	sw	ra,44(sp)
    2ac0:	afb30028 	sw	s3,40(sp)
    2ac4:	afb10020 	sw	s1,32(sp)
    2ac8:	90910000 	lbu	s1,0(a0)
    2acc:	24020002 	li	v0,2
    2ad0:	00808021 	move	s0,a0
    2ad4:	00c09021 	move	s2,a2
    2ad8:	afa00010 	sw	zero,16(sp)
    2adc:	16220020 	bne	s1,v0,2b60 <OSQPend+0xb0>
    2ae0:	938274b0 	lbu	v0,29872(gp)
    2ae4:	1440005c 	bnez	v0,2c58 <OSQPend+0x1a8>
    2ae8:	00000000 	nop
    2aec:	93827464 	lbu	v0,29796(gp)
    2af0:	1440004d 	bnez	v0,2c28 <OSQPend+0x178>
    2af4:	2402000d 	li	v0,13
    2af8:	0c001b9b 	jal	6e6c <OS_CPU_SR_Save>
    2afc:	00a09821 	move	s3,a1
    2b00:	8e030004 	lw	v1,4(s0)
    2b04:	afa20010 	sw	v0,16(sp)
    2b08:	94620016 	lhu	v0,22(v1)
    2b0c:	1040001e 	beqz	v0,2b88 <OSQPend+0xd8>
    2b10:	2442ffff 	addiu	v0,v0,-1
    2b14:	8c650010 	lw	a1,16(v1)
    2b18:	8c660008 	lw	a2,8(v1)
    2b1c:	24a40004 	addiu	a0,a1,4
    2b20:	ac640010 	sw	a0,16(v1)
    2b24:	8cb00000 	lw	s0,0(a1)
    2b28:	10860048 	beq	a0,a2,2c4c <OSQPend+0x19c>
    2b2c:	a4620016 	sh	v0,22(v1)
    2b30:	8fa40010 	lw	a0,16(sp)
    2b34:	0c001ba2 	jal	6e88 <OS_CPU_SR_Restore>
    2b38:	00000000 	nop
    2b3c:	a2400000 	sb	zero,0(s2)
    2b40:	02001021 	move	v0,s0
    2b44:	8fbf002c 	lw	ra,44(sp)
    2b48:	8fb30028 	lw	s3,40(sp)
    2b4c:	8fb20024 	lw	s2,36(sp)
    2b50:	8fb10020 	lw	s1,32(sp)
    2b54:	8fb0001c 	lw	s0,28(sp)
    2b58:	03e00008 	jr	ra
    2b5c:	27bd0030 	addiu	sp,sp,48
    2b60:	24020001 	li	v0,1
    2b64:	a0c20000 	sb	v0,0(a2)
    2b68:	8fbf002c 	lw	ra,44(sp)
    2b6c:	8fb30028 	lw	s3,40(sp)
    2b70:	8fb20024 	lw	s2,36(sp)
    2b74:	8fb10020 	lw	s1,32(sp)
    2b78:	8fb0001c 	lw	s0,28(sp)
    2b7c:	00001021 	move	v0,zero
    2b80:	03e00008 	jr	ra
    2b84:	27bd0030 	addiu	sp,sp,48
    2b88:	8f8274b4 	lw	v0,29876(gp)
    2b8c:	02002021 	move	a0,s0
    2b90:	90430034 	lbu	v1,52(v0)
    2b94:	a0400035 	sb	zero,53(v0)
    2b98:	34630004 	ori	v1,v1,0x4
    2b9c:	a0430034 	sb	v1,52(v0)
    2ba0:	0c0017be 	jal	5ef8 <OS_EventTaskWait>
    2ba4:	ac530030 	sw	s3,48(v0)
    2ba8:	8fa40010 	lw	a0,16(sp)
    2bac:	0c001ba2 	jal	6e88 <OS_CPU_SR_Restore>
    2bb0:	00000000 	nop
    2bb4:	0c001883 	jal	620c <OS_Sched>
    2bb8:	00000000 	nop
    2bbc:	0c001b9b 	jal	6e6c <OS_CPU_SR_Save>
    2bc0:	00000000 	nop
    2bc4:	8f8474b4 	lw	a0,29876(gp)
    2bc8:	afa20010 	sw	v0,16(sp)
    2bcc:	90820035 	lbu	v0,53(a0)
    2bd0:	1040002a 	beqz	v0,2c7c <OSQPend+0x1cc>
    2bd4:	00000000 	nop
    2bd8:	14510022 	bne	v0,s1,2c64 <OSQPend+0x1b4>
    2bdc:	2402000e 	li	v0,14
    2be0:	a2420000 	sb	v0,0(s2)
    2be4:	00008021 	move	s0,zero
    2be8:	8f8374b4 	lw	v1,29876(gp)
    2bec:	8fa40010 	lw	a0,16(sp)
    2bf0:	a0600034 	sb	zero,52(v1)
    2bf4:	a0600035 	sb	zero,53(v1)
    2bf8:	ac60001c 	sw	zero,28(v1)
    2bfc:	ac600020 	sw	zero,32(v1)
    2c00:	0c001ba2 	jal	6e88 <OS_CPU_SR_Restore>
    2c04:	ac600024 	sw	zero,36(v1)
    2c08:	8fbf002c 	lw	ra,44(sp)
    2c0c:	02001021 	move	v0,s0
    2c10:	8fb30028 	lw	s3,40(sp)
    2c14:	8fb20024 	lw	s2,36(sp)
    2c18:	8fb10020 	lw	s1,32(sp)
    2c1c:	8fb0001c 	lw	s0,28(sp)
    2c20:	03e00008 	jr	ra
    2c24:	27bd0030 	addiu	sp,sp,48
    2c28:	a0c20000 	sb	v0,0(a2)
    2c2c:	8fbf002c 	lw	ra,44(sp)
    2c30:	8fb30028 	lw	s3,40(sp)
    2c34:	8fb20024 	lw	s2,36(sp)
    2c38:	8fb10020 	lw	s1,32(sp)
    2c3c:	8fb0001c 	lw	s0,28(sp)
    2c40:	00001021 	move	v0,zero
    2c44:	03e00008 	jr	ra
    2c48:	27bd0030 	addiu	sp,sp,48
    2c4c:	8c620004 	lw	v0,4(v1)
    2c50:	08000acc 	j	2b30 <OSQPend+0x80>
    2c54:	ac620010 	sw	v0,16(v1)
    2c58:	a0d10000 	sb	s1,0(a2)
    2c5c:	08000ad1 	j	2b44 <OSQPend+0x94>
    2c60:	00001021 	move	v0,zero
    2c64:	0c0017ff 	jal	5ffc <OS_EventTaskRemove>
    2c68:	02002821 	move	a1,s0
    2c6c:	2402000a 	li	v0,10
    2c70:	a2420000 	sb	v0,0(s2)
    2c74:	08000afa 	j	2be8 <OSQPend+0x138>
    2c78:	00008021 	move	s0,zero
    2c7c:	8c900024 	lw	s0,36(a0)
    2c80:	08000afa 	j	2be8 <OSQPend+0x138>
    2c84:	a2400000 	sb	zero,0(s2)

00002c88 <OSQPendAbort>:
    2c88:	27bdffd8 	addiu	sp,sp,-40
    2c8c:	afb20020 	sw	s2,32(sp)
    2c90:	afb1001c 	sw	s1,28(sp)
    2c94:	afb00018 	sw	s0,24(sp)
    2c98:	afbf0024 	sw	ra,36(sp)
    2c9c:	90820000 	lbu	v0,0(a0)
    2ca0:	24030002 	li	v1,2
    2ca4:	00808021 	move	s0,a0
    2ca8:	00c09021 	move	s2,a2
    2cac:	30b100ff 	andi	s1,a1,0xff
    2cb0:	afa00010 	sw	zero,16(sp)
    2cb4:	10430009 	beq	v0,v1,2cdc <OSQPendAbort+0x54>
    2cb8:	24020001 	li	v0,1
    2cbc:	a0c20000 	sb	v0,0(a2)
    2cc0:	00001021 	move	v0,zero
    2cc4:	8fbf0024 	lw	ra,36(sp)
    2cc8:	8fb20020 	lw	s2,32(sp)
    2ccc:	8fb1001c 	lw	s1,28(sp)
    2cd0:	8fb00018 	lw	s0,24(sp)
    2cd4:	03e00008 	jr	ra
    2cd8:	27bd0028 	addiu	sp,sp,40
    2cdc:	0c001b9b 	jal	6e6c <OS_CPU_SR_Save>
    2ce0:	00000000 	nop
    2ce4:	9203000a 	lbu	v1,10(s0)
    2ce8:	afa20010 	sw	v0,16(sp)
    2cec:	1060001c 	beqz	v1,2d60 <OSQPendAbort+0xd8>
    2cf0:	00000000 	nop
    2cf4:	24020001 	li	v0,1
    2cf8:	1622001f 	bne	s1,v0,2d78 <OSQPendAbort+0xf0>
    2cfc:	02002021 	move	a0,s0
    2d00:	00008821 	move	s1,zero
    2d04:	02002021 	move	a0,s0
    2d08:	00002821 	move	a1,zero
    2d0c:	24060004 	li	a2,4
    2d10:	0c001824 	jal	6090 <OS_EventTaskRdy>
    2d14:	24070002 	li	a3,2
    2d18:	9202000a 	lbu	v0,10(s0)
    2d1c:	26310001 	addiu	s1,s1,1
    2d20:	1440fff8 	bnez	v0,2d04 <OSQPendAbort+0x7c>
    2d24:	323100ff 	andi	s1,s1,0xff
    2d28:	8fa40010 	lw	a0,16(sp)
    2d2c:	0c001ba2 	jal	6e88 <OS_CPU_SR_Restore>
    2d30:	00000000 	nop
    2d34:	0c001883 	jal	620c <OS_Sched>
    2d38:	00000000 	nop
    2d3c:	2402000e 	li	v0,14
    2d40:	a2420000 	sb	v0,0(s2)
    2d44:	8fbf0024 	lw	ra,36(sp)
    2d48:	02201021 	move	v0,s1
    2d4c:	8fb20020 	lw	s2,32(sp)
    2d50:	8fb1001c 	lw	s1,28(sp)
    2d54:	8fb00018 	lw	s0,24(sp)
    2d58:	03e00008 	jr	ra
    2d5c:	27bd0028 	addiu	sp,sp,40
    2d60:	8fa40010 	lw	a0,16(sp)
    2d64:	0c001ba2 	jal	6e88 <OS_CPU_SR_Restore>
    2d68:	00000000 	nop
    2d6c:	a2400000 	sb	zero,0(s2)
    2d70:	08000b31 	j	2cc4 <OSQPendAbort+0x3c>
    2d74:	00001021 	move	v0,zero
    2d78:	00002821 	move	a1,zero
    2d7c:	24060004 	li	a2,4
    2d80:	0c001824 	jal	6090 <OS_EventTaskRdy>
    2d84:	24070002 	li	a3,2
    2d88:	08000b4a 	j	2d28 <OSQPendAbort+0xa0>
    2d8c:	24110001 	li	s1,1

00002d90 <OSQPost>:
    2d90:	27bdffd8 	addiu	sp,sp,-40
    2d94:	afbf0024 	sw	ra,36(sp)
    2d98:	90820000 	lbu	v0,0(a0)
    2d9c:	24030002 	li	v1,2
    2da0:	afa00010 	sw	zero,16(sp)
    2da4:	10430004 	beq	v0,v1,2db8 <OSQPost+0x28>
    2da8:	24020001 	li	v0,1
    2dac:	8fbf0024 	lw	ra,36(sp)
    2db0:	03e00008 	jr	ra
    2db4:	27bd0028 	addiu	sp,sp,40
    2db8:	afa40018 	sw	a0,24(sp)
    2dbc:	0c001b9b 	jal	6e6c <OS_CPU_SR_Save>
    2dc0:	afa5001c 	sw	a1,28(sp)
    2dc4:	8fa40018 	lw	a0,24(sp)
    2dc8:	afa20010 	sw	v0,16(sp)
    2dcc:	9083000a 	lbu	v1,10(a0)
    2dd0:	14600019 	bnez	v1,2e38 <OSQPost+0xa8>
    2dd4:	8fa5001c 	lw	a1,28(sp)
    2dd8:	8c820004 	lw	v0,4(a0)
    2ddc:	94430016 	lhu	v1,22(v0)
    2de0:	94440014 	lhu	a0,20(v0)
    2de4:	0064202b 	sltu	a0,v1,a0
    2de8:	1080000e 	beqz	a0,2e24 <OSQPost+0x94>
    2dec:	24630001 	addiu	v1,v1,1
    2df0:	8c44000c 	lw	a0,12(v0)
    2df4:	24860004 	addiu	a2,a0,4
    2df8:	ac46000c 	sw	a2,12(v0)
    2dfc:	ac850000 	sw	a1,0(a0)
    2e00:	8c45000c 	lw	a1,12(v0)
    2e04:	8c440008 	lw	a0,8(v0)
    2e08:	10a40015 	beq	a1,a0,2e60 <OSQPost+0xd0>
    2e0c:	a4430016 	sh	v1,22(v0)
    2e10:	8fa40010 	lw	a0,16(sp)
    2e14:	0c001ba2 	jal	6e88 <OS_CPU_SR_Restore>
    2e18:	00000000 	nop
    2e1c:	08000b6b 	j	2dac <OSQPost+0x1c>
    2e20:	00001021 	move	v0,zero
    2e24:	8fa40010 	lw	a0,16(sp)
    2e28:	0c001ba2 	jal	6e88 <OS_CPU_SR_Restore>
    2e2c:	00000000 	nop
    2e30:	08000b6b 	j	2dac <OSQPost+0x1c>
    2e34:	2402001e 	li	v0,30
    2e38:	24060004 	li	a2,4
    2e3c:	0c001824 	jal	6090 <OS_EventTaskRdy>
    2e40:	00003821 	move	a3,zero
    2e44:	8fa40010 	lw	a0,16(sp)
    2e48:	0c001ba2 	jal	6e88 <OS_CPU_SR_Restore>
    2e4c:	00000000 	nop
    2e50:	0c001883 	jal	620c <OS_Sched>
    2e54:	00000000 	nop
    2e58:	08000b6b 	j	2dac <OSQPost+0x1c>
    2e5c:	00001021 	move	v0,zero
    2e60:	8c430004 	lw	v1,4(v0)
    2e64:	08000b84 	j	2e10 <OSQPost+0x80>
    2e68:	ac43000c 	sw	v1,12(v0)

00002e6c <OSQPostFront>:
    2e6c:	27bdffd8 	addiu	sp,sp,-40
    2e70:	afbf0024 	sw	ra,36(sp)
    2e74:	90820000 	lbu	v0,0(a0)
    2e78:	24030002 	li	v1,2
    2e7c:	afa00010 	sw	zero,16(sp)
    2e80:	10430004 	beq	v0,v1,2e94 <OSQPostFront+0x28>
    2e84:	24020001 	li	v0,1
    2e88:	8fbf0024 	lw	ra,36(sp)
    2e8c:	03e00008 	jr	ra
    2e90:	27bd0028 	addiu	sp,sp,40
    2e94:	afa40018 	sw	a0,24(sp)
    2e98:	0c001b9b 	jal	6e6c <OS_CPU_SR_Save>
    2e9c:	afa5001c 	sw	a1,28(sp)
    2ea0:	8fa40018 	lw	a0,24(sp)
    2ea4:	afa20010 	sw	v0,16(sp)
    2ea8:	9083000a 	lbu	v1,10(a0)
    2eac:	14600019 	bnez	v1,2f14 <OSQPostFront+0xa8>
    2eb0:	8fa5001c 	lw	a1,28(sp)
    2eb4:	8c820004 	lw	v0,4(a0)
    2eb8:	94430016 	lhu	v1,22(v0)
    2ebc:	94440014 	lhu	a0,20(v0)
    2ec0:	0064202b 	sltu	a0,v1,a0
    2ec4:	1080000e 	beqz	a0,2f00 <OSQPostFront+0x94>
    2ec8:	00000000 	nop
    2ecc:	8c460010 	lw	a2,16(v0)
    2ed0:	8c440004 	lw	a0,4(v0)
    2ed4:	10c40019 	beq	a2,a0,2f3c <OSQPostFront+0xd0>
    2ed8:	00000000 	nop
    2edc:	24c7fffc 	addiu	a3,a2,-4
    2ee0:	24630001 	addiu	v1,v1,1
    2ee4:	8fa40010 	lw	a0,16(sp)
    2ee8:	ac470010 	sw	a3,16(v0)
    2eec:	acc5fffc 	sw	a1,-4(a2)
    2ef0:	0c001ba2 	jal	6e88 <OS_CPU_SR_Restore>
    2ef4:	a4430016 	sh	v1,22(v0)
    2ef8:	08000ba2 	j	2e88 <OSQPostFront+0x1c>
    2efc:	00001021 	move	v0,zero
    2f00:	8fa40010 	lw	a0,16(sp)
    2f04:	0c001ba2 	jal	6e88 <OS_CPU_SR_Restore>
    2f08:	00000000 	nop
    2f0c:	08000ba2 	j	2e88 <OSQPostFront+0x1c>
    2f10:	2402001e 	li	v0,30
    2f14:	24060004 	li	a2,4
    2f18:	0c001824 	jal	6090 <OS_EventTaskRdy>
    2f1c:	00003821 	move	a3,zero
    2f20:	8fa40010 	lw	a0,16(sp)
    2f24:	0c001ba2 	jal	6e88 <OS_CPU_SR_Restore>
    2f28:	00000000 	nop
    2f2c:	0c001883 	jal	620c <OS_Sched>
    2f30:	00000000 	nop
    2f34:	08000ba2 	j	2e88 <OSQPostFront+0x1c>
    2f38:	00001021 	move	v0,zero
    2f3c:	08000bb7 	j	2edc <OSQPostFront+0x70>
    2f40:	8c460008 	lw	a2,8(v0)

00002f44 <OSQPostOpt>:
    2f44:	27bdffd0 	addiu	sp,sp,-48
    2f48:	afb20028 	sw	s2,40(sp)
    2f4c:	afb00020 	sw	s0,32(sp)
    2f50:	afbf002c 	sw	ra,44(sp)
    2f54:	afb10024 	sw	s1,36(sp)
    2f58:	90830000 	lbu	v1,0(a0)
    2f5c:	00808021 	move	s0,a0
    2f60:	24040002 	li	a0,2
    2f64:	30d200ff 	andi	s2,a2,0xff
    2f68:	afa00010 	sw	zero,16(sp)
    2f6c:	10640007 	beq	v1,a0,2f8c <OSQPostOpt+0x48>
    2f70:	24020001 	li	v0,1
    2f74:	8fbf002c 	lw	ra,44(sp)
    2f78:	8fb20028 	lw	s2,40(sp)
    2f7c:	8fb10024 	lw	s1,36(sp)
    2f80:	8fb00020 	lw	s0,32(sp)
    2f84:	03e00008 	jr	ra
    2f88:	27bd0030 	addiu	sp,sp,48
    2f8c:	0c001b9b 	jal	6e6c <OS_CPU_SR_Save>
    2f90:	00a08821 	move	s1,a1
    2f94:	9203000a 	lbu	v1,10(s0)
    2f98:	afa20010 	sw	v0,16(sp)
    2f9c:	10600013 	beqz	v1,2fec <OSQPostOpt+0xa8>
    2fa0:	32420001 	andi	v0,s2,0x1
    2fa4:	10400039 	beqz	v0,308c <OSQPostOpt+0x148>
    2fa8:	02002021 	move	a0,s0
    2fac:	02202821 	move	a1,s1
    2fb0:	24060004 	li	a2,4
    2fb4:	0c001824 	jal	6090 <OS_EventTaskRdy>
    2fb8:	00003821 	move	a3,zero
    2fbc:	9203000a 	lbu	v1,10(s0)
    2fc0:	1460fffa 	bnez	v1,2fac <OSQPostOpt+0x68>
    2fc4:	02002021 	move	a0,s0
    2fc8:	8fa40010 	lw	a0,16(sp)
    2fcc:	0c001ba2 	jal	6e88 <OS_CPU_SR_Restore>
    2fd0:	00000000 	nop
    2fd4:	32420004 	andi	v0,s2,0x4
    2fd8:	304200ff 	andi	v0,v0,0xff
    2fdc:	10400027 	beqz	v0,307c <OSQPostOpt+0x138>
    2fe0:	00000000 	nop
    2fe4:	08000bdd 	j	2f74 <OSQPostOpt+0x30>
    2fe8:	00001021 	move	v0,zero
    2fec:	8e020004 	lw	v0,4(s0)
    2ff0:	94430016 	lhu	v1,22(v0)
    2ff4:	94440014 	lhu	a0,20(v0)
    2ff8:	0064202b 	sltu	a0,v1,a0
    2ffc:	10800019 	beqz	a0,3064 <OSQPostOpt+0x120>
    3000:	32520002 	andi	s2,s2,0x2
    3004:	12400009 	beqz	s2,302c <OSQPostOpt+0xe8>
    3008:	00000000 	nop
    300c:	8c440010 	lw	a0,16(v0)
    3010:	8c450004 	lw	a1,4(v0)
    3014:	10850026 	beq	a0,a1,30b0 <OSQPostOpt+0x16c>
    3018:	00000000 	nop
    301c:	2485fffc 	addiu	a1,a0,-4
    3020:	ac450010 	sw	a1,16(v0)
    3024:	08000c13 	j	304c <OSQPostOpt+0x108>
    3028:	ac91fffc 	sw	s1,-4(a0)
    302c:	8c44000c 	lw	a0,12(v0)
    3030:	24850004 	addiu	a1,a0,4
    3034:	ac45000c 	sw	a1,12(v0)
    3038:	ac910000 	sw	s1,0(a0)
    303c:	8c45000c 	lw	a1,12(v0)
    3040:	8c440008 	lw	a0,8(v0)
    3044:	10a40017 	beq	a1,a0,30a4 <OSQPostOpt+0x160>
    3048:	00000000 	nop
    304c:	24630001 	addiu	v1,v1,1
    3050:	8fa40010 	lw	a0,16(sp)
    3054:	0c001ba2 	jal	6e88 <OS_CPU_SR_Restore>
    3058:	a4430016 	sh	v1,22(v0)
    305c:	08000bdd 	j	2f74 <OSQPostOpt+0x30>
    3060:	00001021 	move	v0,zero
    3064:	8fa40010 	lw	a0,16(sp)
    3068:	2402001e 	li	v0,30
    306c:	0c001ba2 	jal	6e88 <OS_CPU_SR_Restore>
    3070:	afa20018 	sw	v0,24(sp)
    3074:	08000bdd 	j	2f74 <OSQPostOpt+0x30>
    3078:	8fa20018 	lw	v0,24(sp)
    307c:	0c001883 	jal	620c <OS_Sched>
    3080:	afa20018 	sw	v0,24(sp)
    3084:	08000bdd 	j	2f74 <OSQPostOpt+0x30>
    3088:	8fa20018 	lw	v0,24(sp)
    308c:	02202821 	move	a1,s1
    3090:	24060004 	li	a2,4
    3094:	0c001824 	jal	6090 <OS_EventTaskRdy>
    3098:	00003821 	move	a3,zero
    309c:	08000bf2 	j	2fc8 <OSQPostOpt+0x84>
    30a0:	00000000 	nop
    30a4:	8c440004 	lw	a0,4(v0)
    30a8:	08000c13 	j	304c <OSQPostOpt+0x108>
    30ac:	ac44000c 	sw	a0,12(v0)
    30b0:	08000c07 	j	301c <OSQPostOpt+0xd8>
    30b4:	8c440008 	lw	a0,8(v0)

000030b8 <OSQQuery>:
    30b8:	27bdffd8 	addiu	sp,sp,-40
    30bc:	afbf0024 	sw	ra,36(sp)
    30c0:	90820000 	lbu	v0,0(a0)
    30c4:	24030002 	li	v1,2
    30c8:	afa00010 	sw	zero,16(sp)
    30cc:	10430004 	beq	v0,v1,30e0 <OSQQuery+0x28>
    30d0:	8fbf0024 	lw	ra,36(sp)
    30d4:	24020001 	li	v0,1
    30d8:	03e00008 	jr	ra
    30dc:	27bd0028 	addiu	sp,sp,40
    30e0:	afa40018 	sw	a0,24(sp)
    30e4:	0c001b9b 	jal	6e6c <OS_CPU_SR_Save>
    30e8:	afa5001c 	sw	a1,28(sp)
    30ec:	8fa40018 	lw	a0,24(sp)
    30f0:	8fa5001c 	lw	a1,28(sp)
    30f4:	9083000a 	lbu	v1,10(a0)
    30f8:	afa20010 	sw	v0,16(sp)
    30fc:	a0a30010 	sb	v1,16(a1)
    3100:	2482000b 	addiu	v0,a0,11
    3104:	24a30008 	addiu	v1,a1,8
    3108:	24870013 	addiu	a3,a0,19
    310c:	24420001 	addiu	v0,v0,1
    3110:	9046ffff 	lbu	a2,-1(v0)
    3114:	24630001 	addiu	v1,v1,1
    3118:	1447fffc 	bne	v0,a3,310c <OSQQuery+0x54>
    311c:	a066ffff 	sb	a2,-1(v1)
    3120:	8c820004 	lw	v0,4(a0)
    3124:	94430016 	lhu	v1,22(v0)
    3128:	1060000d 	beqz	v1,3160 <OSQQuery+0xa8>
    312c:	00000000 	nop
    3130:	8c440010 	lw	a0,16(v0)
    3134:	8c840000 	lw	a0,0(a0)
    3138:	aca40000 	sw	a0,0(a1)
    313c:	94420014 	lhu	v0,20(v0)
    3140:	8fa40010 	lw	a0,16(sp)
    3144:	a4a20006 	sh	v0,6(a1)
    3148:	0c001ba2 	jal	6e88 <OS_CPU_SR_Restore>
    314c:	a4a30004 	sh	v1,4(a1)
    3150:	8fbf0024 	lw	ra,36(sp)
    3154:	00001021 	move	v0,zero
    3158:	03e00008 	jr	ra
    315c:	27bd0028 	addiu	sp,sp,40
    3160:	08000c4f 	j	313c <OSQQuery+0x84>
    3164:	aca00000 	sw	zero,0(a1)

00003168 <OS_QInit>:
    3168:	27bdffe8 	addiu	sp,sp,-24
    316c:	afb00010 	sw	s0,16(sp)
    3170:	3c100001 	lui	s0,0x1
    3174:	26048040 	addiu	a0,s0,-32704
    3178:	afbf0014 	sw	ra,20(sp)
    317c:	0c00186d 	jal	61b4 <OS_MemClr>
    3180:	24050060 	li	a1,96
    3184:	3c030001 	lui	v1,0x1
    3188:	24638058 	addiu	v1,v1,-32680
    318c:	ae038040 	sw	v1,-32704(s0)
    3190:	3c030001 	lui	v1,0x1
    3194:	26028040 	addiu	v0,s0,-32704
    3198:	24638070 	addiu	v1,v1,-32656
    319c:	8fbf0014 	lw	ra,20(sp)
    31a0:	ac430018 	sw	v1,24(v0)
    31a4:	3c030001 	lui	v1,0x1
    31a8:	24638088 	addiu	v1,v1,-32632
    31ac:	8fb00010 	lw	s0,16(sp)
    31b0:	ac430030 	sw	v1,48(v0)
    31b4:	ac400048 	sw	zero,72(v0)
    31b8:	af82749c 	sw	v0,29852(gp)
    31bc:	03e00008 	jr	ra
    31c0:	27bd0018 	addiu	sp,sp,24

000031c4 <OSSemAccept>:
    31c4:	27bdffd8 	addiu	sp,sp,-40
    31c8:	afbf0024 	sw	ra,36(sp)
    31cc:	afb00020 	sw	s0,32(sp)
    31d0:	90830000 	lbu	v1,0(a0)
    31d4:	24020003 	li	v0,3
    31d8:	afa00010 	sw	zero,16(sp)
    31dc:	10620005 	beq	v1,v0,31f4 <OSSemAccept+0x30>
    31e0:	8fbf0024 	lw	ra,36(sp)
    31e4:	8fb00020 	lw	s0,32(sp)
    31e8:	00001021 	move	v0,zero
    31ec:	03e00008 	jr	ra
    31f0:	27bd0028 	addiu	sp,sp,40
    31f4:	0c001b9b 	jal	6e6c <OS_CPU_SR_Save>
    31f8:	afa40018 	sw	a0,24(sp)
    31fc:	8fa40018 	lw	a0,24(sp)
    3200:	afa20010 	sw	v0,16(sp)
    3204:	94900008 	lhu	s0,8(a0)
    3208:	12000002 	beqz	s0,3214 <OSSemAccept+0x50>
    320c:	2602ffff 	addiu	v0,s0,-1
    3210:	a4820008 	sh	v0,8(a0)
    3214:	8fa40010 	lw	a0,16(sp)
    3218:	0c001ba2 	jal	6e88 <OS_CPU_SR_Restore>
    321c:	00000000 	nop
    3220:	8fbf0024 	lw	ra,36(sp)
    3224:	02001021 	move	v0,s0
    3228:	8fb00020 	lw	s0,32(sp)
    322c:	03e00008 	jr	ra
    3230:	27bd0028 	addiu	sp,sp,40

00003234 <OSSemCreate>:
    3234:	938274b0 	lbu	v0,29872(gp)
    3238:	27bdffd8 	addiu	sp,sp,-40
    323c:	afb10020 	sw	s1,32(sp)
    3240:	afbf0024 	sw	ra,36(sp)
    3244:	afb0001c 	sw	s0,28(sp)
    3248:	3091ffff 	andi	s1,a0,0xffff
    324c:	afa00010 	sw	zero,16(sp)
    3250:	1440001d 	bnez	v0,32c8 <OSSemCreate+0x94>
    3254:	8fbf0024 	lw	ra,36(sp)
    3258:	0c001b9b 	jal	6e6c <OS_CPU_SR_Save>
    325c:	00000000 	nop
    3260:	8f9074ac 	lw	s0,29868(gp)
    3264:	afa20010 	sw	v0,16(sp)
    3268:	8fa40010 	lw	a0,16(sp)
    326c:	12000013 	beqz	s0,32bc <OSSemCreate+0x88>
    3270:	00000000 	nop
    3274:	8e020004 	lw	v0,4(s0)
    3278:	0c001ba2 	jal	6e88 <OS_CPU_SR_Restore>
    327c:	af8274ac 	sw	v0,29868(gp)
    3280:	24020003 	li	v0,3
    3284:	a2020000 	sb	v0,0(s0)
    3288:	3c020000 	lui	v0,0x0
    328c:	24427404 	addiu	v0,v0,29700
    3290:	a6110008 	sh	s1,8(s0)
    3294:	ae020014 	sw	v0,20(s0)
    3298:	ae000004 	sw	zero,4(s0)
    329c:	0c001864 	jal	6190 <OS_EventWaitListInit>
    32a0:	02002021 	move	a0,s0
    32a4:	8fbf0024 	lw	ra,36(sp)
    32a8:	02001021 	move	v0,s0
    32ac:	8fb10020 	lw	s1,32(sp)
    32b0:	8fb0001c 	lw	s0,28(sp)
    32b4:	03e00008 	jr	ra
    32b8:	27bd0028 	addiu	sp,sp,40
    32bc:	0c001ba2 	jal	6e88 <OS_CPU_SR_Restore>
    32c0:	00000000 	nop
    32c4:	8fbf0024 	lw	ra,36(sp)
    32c8:	8fb10020 	lw	s1,32(sp)
    32cc:	8fb0001c 	lw	s0,28(sp)
    32d0:	00001021 	move	v0,zero
    32d4:	03e00008 	jr	ra
    32d8:	27bd0028 	addiu	sp,sp,40

000032dc <OSSemDel>:
    32dc:	27bdffd0 	addiu	sp,sp,-48
    32e0:	afb20024 	sw	s2,36(sp)
    32e4:	afb10020 	sw	s1,32(sp)
    32e8:	afb0001c 	sw	s0,28(sp)
    32ec:	afbf002c 	sw	ra,44(sp)
    32f0:	afb30028 	sw	s3,40(sp)
    32f4:	90820000 	lbu	v0,0(a0)
    32f8:	24030003 	li	v1,3
    32fc:	00808021 	move	s0,a0
    3300:	00c08821 	move	s1,a2
    3304:	30b200ff 	andi	s2,a1,0xff
    3308:	afa00010 	sw	zero,16(sp)
    330c:	1043000a 	beq	v0,v1,3338 <OSSemDel+0x5c>
    3310:	24020001 	li	v0,1
    3314:	a0c20000 	sb	v0,0(a2)
    3318:	8fbf002c 	lw	ra,44(sp)
    331c:	02001021 	move	v0,s0
    3320:	8fb30028 	lw	s3,40(sp)
    3324:	8fb20024 	lw	s2,36(sp)
    3328:	8fb10020 	lw	s1,32(sp)
    332c:	8fb0001c 	lw	s0,28(sp)
    3330:	03e00008 	jr	ra
    3334:	27bd0030 	addiu	sp,sp,48
    3338:	938274b0 	lbu	v0,29872(gp)
    333c:	1040000a 	beqz	v0,3368 <OSSemDel+0x8c>
    3340:	2402000f 	li	v0,15
    3344:	a0c20000 	sb	v0,0(a2)
    3348:	8fbf002c 	lw	ra,44(sp)
    334c:	02001021 	move	v0,s0
    3350:	8fb30028 	lw	s3,40(sp)
    3354:	8fb20024 	lw	s2,36(sp)
    3358:	8fb10020 	lw	s1,32(sp)
    335c:	8fb0001c 	lw	s0,28(sp)
    3360:	03e00008 	jr	ra
    3364:	27bd0030 	addiu	sp,sp,48
    3368:	0c001b9b 	jal	6e6c <OS_CPU_SR_Save>
    336c:	00000000 	nop
    3370:	9213000a 	lbu	s3,10(s0)
    3374:	afa20010 	sw	v0,16(sp)
    3378:	12400027 	beqz	s2,3418 <OSSemDel+0x13c>
    337c:	0013982b 	sltu	s3,zero,s3
    3380:	24020001 	li	v0,1
    3384:	1642001a 	bne	s2,v0,33f0 <OSSemDel+0x114>
    3388:	00000000 	nop
    338c:	1260000a 	beqz	s3,33b8 <OSSemDel+0xdc>
    3390:	3c020000 	lui	v0,0x0
    3394:	02002021 	move	a0,s0
    3398:	00002821 	move	a1,zero
    339c:	24060001 	li	a2,1
    33a0:	0c001824 	jal	6090 <OS_EventTaskRdy>
    33a4:	00003821 	move	a3,zero
    33a8:	9202000a 	lbu	v0,10(s0)
    33ac:	1440fffa 	bnez	v0,3398 <OSSemDel+0xbc>
    33b0:	02002021 	move	a0,s0
    33b4:	3c020000 	lui	v0,0x0
    33b8:	a2000000 	sb	zero,0(s0)
    33bc:	24427404 	addiu	v0,v0,29700
    33c0:	ae020014 	sw	v0,20(s0)
    33c4:	8f8274ac 	lw	v0,29868(gp)
    33c8:	8fa40010 	lw	a0,16(sp)
    33cc:	ae020004 	sw	v0,4(s0)
    33d0:	a6000008 	sh	zero,8(s0)
    33d4:	0c001ba2 	jal	6e88 <OS_CPU_SR_Restore>
    33d8:	af9074ac 	sw	s0,29868(gp)
    33dc:	1660000a 	bnez	s3,3408 <OSSemDel+0x12c>
    33e0:	00000000 	nop
    33e4:	a2200000 	sb	zero,0(s1)
    33e8:	08000cc6 	j	3318 <OSSemDel+0x3c>
    33ec:	00008021 	move	s0,zero
    33f0:	8fa40010 	lw	a0,16(sp)
    33f4:	0c001ba2 	jal	6e88 <OS_CPU_SR_Restore>
    33f8:	00000000 	nop
    33fc:	24020007 	li	v0,7
    3400:	08000cc6 	j	3318 <OSSemDel+0x3c>
    3404:	a2220000 	sb	v0,0(s1)
    3408:	0c001883 	jal	620c <OS_Sched>
    340c:	00008021 	move	s0,zero
    3410:	08000cc6 	j	3318 <OSSemDel+0x3c>
    3414:	a2200000 	sb	zero,0(s1)
    3418:	1660000d 	bnez	s3,3450 <OSSemDel+0x174>
    341c:	3c020000 	lui	v0,0x0
    3420:	a2000000 	sb	zero,0(s0)
    3424:	24427404 	addiu	v0,v0,29700
    3428:	ae020014 	sw	v0,20(s0)
    342c:	8f8274ac 	lw	v0,29868(gp)
    3430:	8fa40010 	lw	a0,16(sp)
    3434:	ae020004 	sw	v0,4(s0)
    3438:	a6000008 	sh	zero,8(s0)
    343c:	0c001ba2 	jal	6e88 <OS_CPU_SR_Restore>
    3440:	af9074ac 	sw	s0,29868(gp)
    3444:	00008021 	move	s0,zero
    3448:	08000cc6 	j	3318 <OSSemDel+0x3c>
    344c:	a2200000 	sb	zero,0(s1)
    3450:	8fa40010 	lw	a0,16(sp)
    3454:	0c001ba2 	jal	6e88 <OS_CPU_SR_Restore>
    3458:	00000000 	nop
    345c:	24020049 	li	v0,73
    3460:	08000cc6 	j	3318 <OSSemDel+0x3c>
    3464:	a2220000 	sb	v0,0(s1)

00003468 <OSSemPend>:
    3468:	27bdffd8 	addiu	sp,sp,-40
    346c:	afb00020 	sw	s0,32(sp)
    3470:	afbf0024 	sw	ra,36(sp)
    3474:	90820000 	lbu	v0,0(a0)
    3478:	24030003 	li	v1,3
    347c:	00808021 	move	s0,a0
    3480:	afa00010 	sw	zero,16(sp)
    3484:	10430006 	beq	v0,v1,34a0 <OSSemPend+0x38>
    3488:	24020001 	li	v0,1
    348c:	a0c20000 	sb	v0,0(a2)
    3490:	8fbf0024 	lw	ra,36(sp)
    3494:	8fb00020 	lw	s0,32(sp)
    3498:	03e00008 	jr	ra
    349c:	27bd0028 	addiu	sp,sp,40
    34a0:	938274b0 	lbu	v0,29872(gp)
    34a4:	14400032 	bnez	v0,3570 <OSSemPend+0x108>
    34a8:	93827464 	lbu	v0,29796(gp)
    34ac:	10400006 	beqz	v0,34c8 <OSSemPend+0x60>
    34b0:	2402000d 	li	v0,13
    34b4:	a0c20000 	sb	v0,0(a2)
    34b8:	8fbf0024 	lw	ra,36(sp)
    34bc:	8fb00020 	lw	s0,32(sp)
    34c0:	03e00008 	jr	ra
    34c4:	27bd0028 	addiu	sp,sp,40
    34c8:	afa50018 	sw	a1,24(sp)
    34cc:	0c001b9b 	jal	6e6c <OS_CPU_SR_Save>
    34d0:	afa6001c 	sw	a2,28(sp)
    34d4:	96030008 	lhu	v1,8(s0)
    34d8:	afa20010 	sw	v0,16(sp)
    34dc:	8fa50018 	lw	a1,24(sp)
    34e0:	1460002b 	bnez	v1,3590 <OSSemPend+0x128>
    34e4:	8fa6001c 	lw	a2,28(sp)
    34e8:	8f8274b4 	lw	v0,29876(gp)
    34ec:	02002021 	move	a0,s0
    34f0:	90430034 	lbu	v1,52(v0)
    34f4:	a0400035 	sb	zero,53(v0)
    34f8:	34630001 	ori	v1,v1,0x1
    34fc:	a0430034 	sb	v1,52(v0)
    3500:	ac450030 	sw	a1,48(v0)
    3504:	0c0017be 	jal	5ef8 <OS_EventTaskWait>
    3508:	afa6001c 	sw	a2,28(sp)
    350c:	8fa40010 	lw	a0,16(sp)
    3510:	0c001ba2 	jal	6e88 <OS_CPU_SR_Restore>
    3514:	00000000 	nop
    3518:	0c001883 	jal	620c <OS_Sched>
    351c:	00000000 	nop
    3520:	0c001b9b 	jal	6e6c <OS_CPU_SR_Save>
    3524:	00000000 	nop
    3528:	8f8474b4 	lw	a0,29876(gp)
    352c:	afa20010 	sw	v0,16(sp)
    3530:	90820035 	lbu	v0,53(a0)
    3534:	10400014 	beqz	v0,3588 <OSSemPend+0x120>
    3538:	8fa6001c 	lw	a2,28(sp)
    353c:	24030002 	li	v1,2
    3540:	1443001b 	bne	v0,v1,35b0 <OSSemPend+0x148>
    3544:	2402000e 	li	v0,14
    3548:	a0c20000 	sb	v0,0(a2)
    354c:	8f8274b4 	lw	v0,29876(gp)
    3550:	8fa40010 	lw	a0,16(sp)
    3554:	a0400034 	sb	zero,52(v0)
    3558:	a0400035 	sb	zero,53(v0)
    355c:	ac40001c 	sw	zero,28(v0)
    3560:	0c001ba2 	jal	6e88 <OS_CPU_SR_Restore>
    3564:	ac400020 	sw	zero,32(v0)
    3568:	08000d25 	j	3494 <OSSemPend+0x2c>
    356c:	8fbf0024 	lw	ra,36(sp)
    3570:	24020002 	li	v0,2
    3574:	a0c20000 	sb	v0,0(a2)
    3578:	8fbf0024 	lw	ra,36(sp)
    357c:	8fb00020 	lw	s0,32(sp)
    3580:	03e00008 	jr	ra
    3584:	27bd0028 	addiu	sp,sp,40
    3588:	08000d53 	j	354c <OSSemPend+0xe4>
    358c:	a0c00000 	sb	zero,0(a2)
    3590:	2463ffff 	addiu	v1,v1,-1
    3594:	8fa40010 	lw	a0,16(sp)
    3598:	a6030008 	sh	v1,8(s0)
    359c:	0c001ba2 	jal	6e88 <OS_CPU_SR_Restore>
    35a0:	afa6001c 	sw	a2,28(sp)
    35a4:	8fa6001c 	lw	a2,28(sp)
    35a8:	08000d24 	j	3490 <OSSemPend+0x28>
    35ac:	a0c00000 	sb	zero,0(a2)
    35b0:	02002821 	move	a1,s0
    35b4:	0c0017ff 	jal	5ffc <OS_EventTaskRemove>
    35b8:	afa6001c 	sw	a2,28(sp)
    35bc:	8fa6001c 	lw	a2,28(sp)
    35c0:	2402000a 	li	v0,10
    35c4:	08000d53 	j	354c <OSSemPend+0xe4>
    35c8:	a0c20000 	sb	v0,0(a2)

000035cc <OSSemPendAbort>:
    35cc:	27bdffd8 	addiu	sp,sp,-40
    35d0:	afb20020 	sw	s2,32(sp)
    35d4:	afb1001c 	sw	s1,28(sp)
    35d8:	afb00018 	sw	s0,24(sp)
    35dc:	afbf0024 	sw	ra,36(sp)
    35e0:	90820000 	lbu	v0,0(a0)
    35e4:	24030003 	li	v1,3
    35e8:	00808021 	move	s0,a0
    35ec:	00c09021 	move	s2,a2
    35f0:	30b100ff 	andi	s1,a1,0xff
    35f4:	afa00010 	sw	zero,16(sp)
    35f8:	10430009 	beq	v0,v1,3620 <OSSemPendAbort+0x54>
    35fc:	24020001 	li	v0,1
    3600:	a0c20000 	sb	v0,0(a2)
    3604:	00001021 	move	v0,zero
    3608:	8fbf0024 	lw	ra,36(sp)
    360c:	8fb20020 	lw	s2,32(sp)
    3610:	8fb1001c 	lw	s1,28(sp)
    3614:	8fb00018 	lw	s0,24(sp)
    3618:	03e00008 	jr	ra
    361c:	27bd0028 	addiu	sp,sp,40
    3620:	0c001b9b 	jal	6e6c <OS_CPU_SR_Save>
    3624:	00000000 	nop
    3628:	9203000a 	lbu	v1,10(s0)
    362c:	afa20010 	sw	v0,16(sp)
    3630:	1060001c 	beqz	v1,36a4 <OSSemPendAbort+0xd8>
    3634:	00000000 	nop
    3638:	24020001 	li	v0,1
    363c:	1622001f 	bne	s1,v0,36bc <OSSemPendAbort+0xf0>
    3640:	02002021 	move	a0,s0
    3644:	00008821 	move	s1,zero
    3648:	02002021 	move	a0,s0
    364c:	00002821 	move	a1,zero
    3650:	24060001 	li	a2,1
    3654:	0c001824 	jal	6090 <OS_EventTaskRdy>
    3658:	24070002 	li	a3,2
    365c:	9202000a 	lbu	v0,10(s0)
    3660:	26310001 	addiu	s1,s1,1
    3664:	1440fff8 	bnez	v0,3648 <OSSemPendAbort+0x7c>
    3668:	323100ff 	andi	s1,s1,0xff
    366c:	8fa40010 	lw	a0,16(sp)
    3670:	0c001ba2 	jal	6e88 <OS_CPU_SR_Restore>
    3674:	00000000 	nop
    3678:	0c001883 	jal	620c <OS_Sched>
    367c:	00000000 	nop
    3680:	2402000e 	li	v0,14
    3684:	a2420000 	sb	v0,0(s2)
    3688:	8fbf0024 	lw	ra,36(sp)
    368c:	02201021 	move	v0,s1
    3690:	8fb20020 	lw	s2,32(sp)
    3694:	8fb1001c 	lw	s1,28(sp)
    3698:	8fb00018 	lw	s0,24(sp)
    369c:	03e00008 	jr	ra
    36a0:	27bd0028 	addiu	sp,sp,40
    36a4:	8fa40010 	lw	a0,16(sp)
    36a8:	0c001ba2 	jal	6e88 <OS_CPU_SR_Restore>
    36ac:	00000000 	nop
    36b0:	a2400000 	sb	zero,0(s2)
    36b4:	08000d82 	j	3608 <OSSemPendAbort+0x3c>
    36b8:	00001021 	move	v0,zero
    36bc:	00002821 	move	a1,zero
    36c0:	24060001 	li	a2,1
    36c4:	0c001824 	jal	6090 <OS_EventTaskRdy>
    36c8:	24070002 	li	a3,2
    36cc:	08000d9b 	j	366c <OSSemPendAbort+0xa0>
    36d0:	24110001 	li	s1,1

000036d4 <OSSemPost>:
    36d4:	27bdffd8 	addiu	sp,sp,-40
    36d8:	afbf0024 	sw	ra,36(sp)
    36dc:	90830000 	lbu	v1,0(a0)
    36e0:	24020003 	li	v0,3
    36e4:	afa00010 	sw	zero,16(sp)
    36e8:	10620004 	beq	v1,v0,36fc <OSSemPost+0x28>
    36ec:	24020001 	li	v0,1
    36f0:	8fbf0024 	lw	ra,36(sp)
    36f4:	03e00008 	jr	ra
    36f8:	27bd0028 	addiu	sp,sp,40
    36fc:	0c001b9b 	jal	6e6c <OS_CPU_SR_Save>
    3700:	afa40018 	sw	a0,24(sp)
    3704:	8fa40018 	lw	a0,24(sp)
    3708:	afa20010 	sw	v0,16(sp)
    370c:	9083000a 	lbu	v1,10(a0)
    3710:	14600010 	bnez	v1,3754 <OSSemPost+0x80>
    3714:	3403ffff 	li	v1,0xffff
    3718:	94820008 	lhu	v0,8(a0)
    371c:	10430008 	beq	v0,v1,3740 <OSSemPost+0x6c>
    3720:	00000000 	nop
    3724:	8fa30010 	lw	v1,16(sp)
    3728:	24420001 	addiu	v0,v0,1
    372c:	a4820008 	sh	v0,8(a0)
    3730:	0c001ba2 	jal	6e88 <OS_CPU_SR_Restore>
    3734:	00602021 	move	a0,v1
    3738:	08000dbc 	j	36f0 <OSSemPost+0x1c>
    373c:	00001021 	move	v0,zero
    3740:	8fa40010 	lw	a0,16(sp)
    3744:	0c001ba2 	jal	6e88 <OS_CPU_SR_Restore>
    3748:	00000000 	nop
    374c:	08000dbc 	j	36f0 <OSSemPost+0x1c>
    3750:	24020033 	li	v0,51
    3754:	00002821 	move	a1,zero
    3758:	24060001 	li	a2,1
    375c:	0c001824 	jal	6090 <OS_EventTaskRdy>
    3760:	00003821 	move	a3,zero
    3764:	8fa40010 	lw	a0,16(sp)
    3768:	0c001ba2 	jal	6e88 <OS_CPU_SR_Restore>
    376c:	00000000 	nop
    3770:	0c001883 	jal	620c <OS_Sched>
    3774:	00000000 	nop
    3778:	08000dbc 	j	36f0 <OSSemPost+0x1c>
    377c:	00001021 	move	v0,zero

00003780 <OSSemQuery>:
    3780:	27bdffd8 	addiu	sp,sp,-40
    3784:	afbf0024 	sw	ra,36(sp)
    3788:	90820000 	lbu	v0,0(a0)
    378c:	24030003 	li	v1,3
    3790:	afa00010 	sw	zero,16(sp)
    3794:	10430004 	beq	v0,v1,37a8 <OSSemQuery+0x28>
    3798:	8fbf0024 	lw	ra,36(sp)
    379c:	24020001 	li	v0,1
    37a0:	03e00008 	jr	ra
    37a4:	27bd0028 	addiu	sp,sp,40
    37a8:	afa40018 	sw	a0,24(sp)
    37ac:	0c001b9b 	jal	6e6c <OS_CPU_SR_Save>
    37b0:	afa5001c 	sw	a1,28(sp)
    37b4:	8fa40018 	lw	a0,24(sp)
    37b8:	8fa5001c 	lw	a1,28(sp)
    37bc:	9083000a 	lbu	v1,10(a0)
    37c0:	afa20010 	sw	v0,16(sp)
    37c4:	a0a3000a 	sb	v1,10(a1)
    37c8:	2482000b 	addiu	v0,a0,11
    37cc:	24a30002 	addiu	v1,a1,2
    37d0:	24870013 	addiu	a3,a0,19
    37d4:	24420001 	addiu	v0,v0,1
    37d8:	9046ffff 	lbu	a2,-1(v0)
    37dc:	24630001 	addiu	v1,v1,1
    37e0:	1447fffc 	bne	v0,a3,37d4 <OSSemQuery+0x54>
    37e4:	a066ffff 	sb	a2,-1(v1)
    37e8:	94820008 	lhu	v0,8(a0)
    37ec:	8fa40010 	lw	a0,16(sp)
    37f0:	0c001ba2 	jal	6e88 <OS_CPU_SR_Restore>
    37f4:	a4a20000 	sh	v0,0(a1)
    37f8:	8fbf0024 	lw	ra,36(sp)
    37fc:	00001021 	move	v0,zero
    3800:	03e00008 	jr	ra
    3804:	27bd0028 	addiu	sp,sp,40

00003808 <OSSemSet>:
    3808:	27bdffd8 	addiu	sp,sp,-40
    380c:	afb00020 	sw	s0,32(sp)
    3810:	afbf0024 	sw	ra,36(sp)
    3814:	90820000 	lbu	v0,0(a0)
    3818:	24030003 	li	v1,3
    381c:	30b0ffff 	andi	s0,a1,0xffff
    3820:	afa00010 	sw	zero,16(sp)
    3824:	10430006 	beq	v0,v1,3840 <OSSemSet+0x38>
    3828:	24020001 	li	v0,1
    382c:	a0c20000 	sb	v0,0(a2)
    3830:	8fbf0024 	lw	ra,36(sp)
    3834:	8fb00020 	lw	s0,32(sp)
    3838:	03e00008 	jr	ra
    383c:	27bd0028 	addiu	sp,sp,40
    3840:	afa40018 	sw	a0,24(sp)
    3844:	0c001b9b 	jal	6e6c <OS_CPU_SR_Save>
    3848:	afa6001c 	sw	a2,28(sp)
    384c:	8fa6001c 	lw	a2,28(sp)
    3850:	afa20010 	sw	v0,16(sp)
    3854:	a0c00000 	sb	zero,0(a2)
    3858:	8fa40018 	lw	a0,24(sp)
    385c:	94830008 	lhu	v1,8(a0)
    3860:	14600004 	bnez	v1,3874 <OSSemSet+0x6c>
    3864:	00000000 	nop
    3868:	9082000a 	lbu	v0,10(a0)
    386c:	14400009 	bnez	v0,3894 <OSSemSet+0x8c>
    3870:	24020049 	li	v0,73
    3874:	a4900008 	sh	s0,8(a0)
    3878:	8fa40010 	lw	a0,16(sp)
    387c:	0c001ba2 	jal	6e88 <OS_CPU_SR_Restore>
    3880:	00000000 	nop
    3884:	8fbf0024 	lw	ra,36(sp)
    3888:	8fb00020 	lw	s0,32(sp)
    388c:	03e00008 	jr	ra
    3890:	27bd0028 	addiu	sp,sp,40
    3894:	08000e1e 	j	3878 <OSSemSet+0x70>
    3898:	a0c20000 	sb	v0,0(a2)

0000389c <OSTaskChangePrio>:
    389c:	27bdffd8 	addiu	sp,sp,-40
    38a0:	afb10020 	sw	s1,32(sp)
    38a4:	afb0001c 	sw	s0,28(sp)
    38a8:	afbf0024 	sw	ra,36(sp)
    38ac:	30b000ff 	andi	s0,a1,0xff
    38b0:	309100ff 	andi	s1,a0,0xff
    38b4:	afa00010 	sw	zero,16(sp)
    38b8:	0c001b9b 	jal	6e6c <OS_CPU_SR_Save>
    38bc:	00000000 	nop
    38c0:	3c030001 	lui	v1,0x1
    38c4:	00102880 	sll	a1,s0,0x2
    38c8:	24638d20 	addiu	v1,v1,-29408
    38cc:	00653021 	addu	a2,v1,a1
    38d0:	8cc60000 	lw	a2,0(a2)
    38d4:	afa20010 	sw	v0,16(sp)
    38d8:	10c0000a 	beqz	a2,3904 <OSTaskChangePrio+0x68>
    38dc:	240200ff 	li	v0,255
    38e0:	8fa40010 	lw	a0,16(sp)
    38e4:	0c001ba2 	jal	6e88 <OS_CPU_SR_Restore>
    38e8:	00000000 	nop
    38ec:	24020028 	li	v0,40
    38f0:	8fbf0024 	lw	ra,36(sp)
    38f4:	8fb10020 	lw	s1,32(sp)
    38f8:	8fb0001c 	lw	s0,28(sp)
    38fc:	03e00008 	jr	ra
    3900:	27bd0028 	addiu	sp,sp,40
    3904:	12220068 	beq	s1,v0,3aa8 <OSTaskChangePrio+0x20c>
    3908:	8f8274b4 	lw	v0,29876(gp)
    390c:	00118880 	sll	s1,s1,0x2
    3910:	00718821 	addu	s1,v1,s1
    3914:	8e270000 	lw	a3,0(s1)
    3918:	10e00065 	beqz	a3,3ab0 <OSTaskChangePrio+0x214>
    391c:	240a0001 	li	t2,1
    3920:	10ea0068 	beq	a3,t2,3ac4 <OSTaskChangePrio+0x228>
    3924:	00651821 	addu	v1,v1,a1
    3928:	ae200000 	sw	zero,0(s1)
    392c:	ac670000 	sw	a3,0(v1)
    3930:	90eb0038 	lbu	t3,56(a3)
    3934:	278274a4 	addiu	v0,gp,29860
    3938:	004b1821 	addu	v1,v0,t3
    393c:	90ec0039 	lbu	t4,57(a3)
    3940:	90640000 	lbu	a0,0(v1)
    3944:	001040c2 	srl	t0,s0,0x3
    3948:	320e0007 	andi	t6,s0,0x7
    394c:	010a4804 	sllv	t1,t2,t0
    3950:	008c2824 	and	a1,a0,t4
    3954:	01ca5004 	sllv	t2,t2,t6
    3958:	312900ff 	andi	t1,t1,0xff
    395c:	314a00ff 	andi	t2,t2,0xff
    3960:	10a0000c 	beqz	a1,3994 <OSTaskChangePrio+0xf8>
    3964:	90ed003a 	lbu	t5,58(a3)
    3968:	000c2827 	nor	a1,zero,t4
    396c:	00852024 	and	a0,a0,a1
    3970:	10800045 	beqz	a0,3a88 <OSTaskChangePrio+0x1ec>
    3974:	a0640000 	sb	a0,0(v1)
    3978:	938474a0 	lbu	a0,29856(gp)
    397c:	00481021 	addu	v0,v0,t0
    3980:	90430000 	lbu	v1,0(v0)
    3984:	00892025 	or	a0,a0,t1
    3988:	01431825 	or	v1,t2,v1
    398c:	a38474a0 	sb	a0,29856(gp)
    3990:	a0430000 	sb	v1,0(v0)
    3994:	8ce2001c 	lw	v0,28(a3)
    3998:	1040000d 	beqz	v0,39d0 <OSTaskChangePrio+0x134>
    399c:	004b2021 	addu	a0,v0,t3
    39a0:	9083000b 	lbu	v1,11(a0)
    39a4:	000c2827 	nor	a1,zero,t4
    39a8:	00a31824 	and	v1,a1,v1
    39ac:	10600032 	beqz	v1,3a78 <OSTaskChangePrio+0x1dc>
    39b0:	a083000b 	sb	v1,11(a0)
    39b4:	9045000a 	lbu	a1,10(v0)
    39b8:	00481821 	addu	v1,v0,t0
    39bc:	9064000b 	lbu	a0,11(v1)
    39c0:	00a92825 	or	a1,a1,t1
    39c4:	01442025 	or	a0,t2,a0
    39c8:	a045000a 	sb	a1,10(v0)
    39cc:	a064000b 	sb	a0,11(v1)
    39d0:	8ce30020 	lw	v1,32(a3)
    39d4:	10600017 	beqz	v1,3a34 <OSTaskChangePrio+0x198>
    39d8:	00000000 	nop
    39dc:	8c620000 	lw	v0,0(v1)
    39e0:	10400014 	beqz	v0,3a34 <OSTaskChangePrio+0x198>
    39e4:	000c6027 	nor	t4,zero,t4
    39e8:	318c00ff 	andi	t4,t4,0xff
    39ec:	000d6827 	nor	t5,zero,t5
    39f0:	004b3021 	addu	a2,v0,t3
    39f4:	90c4000b 	lbu	a0,11(a2)
    39f8:	01842024 	and	a0,t4,a0
    39fc:	a0c4000b 	sb	a0,11(a2)
    3a00:	14800002 	bnez	a0,3a0c <OSTaskChangePrio+0x170>
    3a04:	9046000a 	lbu	a2,10(v0)
    3a08:	01a63024 	and	a2,t5,a2
    3a0c:	00482021 	addu	a0,v0,t0
    3a10:	9085000b 	lbu	a1,11(a0)
    3a14:	00c93025 	or	a2,a2,t1
    3a18:	01452825 	or	a1,t2,a1
    3a1c:	a046000a 	sb	a2,10(v0)
    3a20:	24630004 	addiu	v1,v1,4
    3a24:	a085000b 	sb	a1,11(a0)
    3a28:	8c620000 	lw	v0,0(v1)
    3a2c:	1440fff1 	bnez	v0,39f4 <OSTaskChangePrio+0x158>
    3a30:	004b3021 	addu	a2,v0,t3
    3a34:	8fa40010 	lw	a0,16(sp)
    3a38:	a0f00036 	sb	s0,54(a3)
    3a3c:	a0e80038 	sb	t0,56(a3)
    3a40:	a0ee0037 	sb	t6,55(a3)
    3a44:	a0e9003a 	sb	t1,58(a3)
    3a48:	0c001ba2 	jal	6e88 <OS_CPU_SR_Restore>
    3a4c:	a0ea0039 	sb	t2,57(a3)
    3a50:	9383746c 	lbu	v1,29804(gp)
    3a54:	24020001 	li	v0,1
    3a58:	1062000f 	beq	v1,v0,3a98 <OSTaskChangePrio+0x1fc>
    3a5c:	00000000 	nop
    3a60:	00001021 	move	v0,zero
    3a64:	8fbf0024 	lw	ra,36(sp)
    3a68:	8fb10020 	lw	s1,32(sp)
    3a6c:	8fb0001c 	lw	s0,28(sp)
    3a70:	03e00008 	jr	ra
    3a74:	27bd0028 	addiu	sp,sp,40
    3a78:	9043000a 	lbu	v1,10(v0)
    3a7c:	000d2827 	nor	a1,zero,t5
    3a80:	08000e6e 	j	39b8 <OSTaskChangePrio+0x11c>
    3a84:	00a32824 	and	a1,a1,v1
    3a88:	938374a0 	lbu	v1,29856(gp)
    3a8c:	000d2027 	nor	a0,zero,t5
    3a90:	08000e5f 	j	397c <OSTaskChangePrio+0xe0>
    3a94:	00832024 	and	a0,a0,v1
    3a98:	0c001883 	jal	620c <OS_Sched>
    3a9c:	00000000 	nop
    3aa0:	08000e99 	j	3a64 <OSTaskChangePrio+0x1c8>
    3aa4:	00001021 	move	v0,zero
    3aa8:	08000e43 	j	390c <OSTaskChangePrio+0x70>
    3aac:	90510036 	lbu	s1,54(v0)
    3ab0:	8fa40010 	lw	a0,16(sp)
    3ab4:	0c001ba2 	jal	6e88 <OS_CPU_SR_Restore>
    3ab8:	00000000 	nop
    3abc:	08000e3c 	j	38f0 <OSTaskChangePrio+0x54>
    3ac0:	24020029 	li	v0,41
    3ac4:	8fa40010 	lw	a0,16(sp)
    3ac8:	0c001ba2 	jal	6e88 <OS_CPU_SR_Restore>
    3acc:	00000000 	nop
    3ad0:	08000e3c 	j	38f0 <OSTaskChangePrio+0x54>
    3ad4:	24020043 	li	v0,67

00003ad8 <OSTaskCreate>:
    3ad8:	27bdffb8 	addiu	sp,sp,-72
    3adc:	afb4003c 	sw	s4,60(sp)
    3ae0:	afb30038 	sw	s3,56(sp)
    3ae4:	afb20034 	sw	s2,52(sp)
    3ae8:	afb0002c 	sw	s0,44(sp)
    3aec:	afbf0044 	sw	ra,68(sp)
    3af0:	afb50040 	sw	s5,64(sp)
    3af4:	afb10030 	sw	s1,48(sp)
    3af8:	00809021 	move	s2,a0
    3afc:	00a0a021 	move	s4,a1
    3b00:	00c09821 	move	s3,a2
    3b04:	30f000ff 	andi	s0,a3,0xff
    3b08:	afa00020 	sw	zero,32(sp)
    3b0c:	0c001b9b 	jal	6e6c <OS_CPU_SR_Save>
    3b10:	00000000 	nop
    3b14:	938374b0 	lbu	v1,29872(gp)
    3b18:	afa20020 	sw	v0,32(sp)
    3b1c:	14600014 	bnez	v1,3b70 <OSTaskCreate+0x98>
    3b20:	3c020001 	lui	v0,0x1
    3b24:	24428d20 	addiu	v0,v0,-29408
    3b28:	00108880 	sll	s1,s0,0x2
    3b2c:	02228821 	addu	s1,s1,v0
    3b30:	8e220000 	lw	v0,0(s1)
    3b34:	8fa40020 	lw	a0,32(sp)
    3b38:	1040001a 	beqz	v0,3ba4 <OSTaskCreate+0xcc>
    3b3c:	24150001 	li	s5,1
    3b40:	0c001ba2 	jal	6e88 <OS_CPU_SR_Restore>
    3b44:	00000000 	nop
    3b48:	24020028 	li	v0,40
    3b4c:	8fbf0044 	lw	ra,68(sp)
    3b50:	8fb50040 	lw	s5,64(sp)
    3b54:	8fb4003c 	lw	s4,60(sp)
    3b58:	8fb30038 	lw	s3,56(sp)
    3b5c:	8fb20034 	lw	s2,52(sp)
    3b60:	8fb10030 	lw	s1,48(sp)
    3b64:	8fb0002c 	lw	s0,44(sp)
    3b68:	03e00008 	jr	ra
    3b6c:	27bd0048 	addiu	sp,sp,72
    3b70:	8fa40020 	lw	a0,32(sp)
    3b74:	0c001ba2 	jal	6e88 <OS_CPU_SR_Restore>
    3b78:	00000000 	nop
    3b7c:	8fbf0044 	lw	ra,68(sp)
    3b80:	8fb50040 	lw	s5,64(sp)
    3b84:	8fb4003c 	lw	s4,60(sp)
    3b88:	8fb30038 	lw	s3,56(sp)
    3b8c:	8fb20034 	lw	s2,52(sp)
    3b90:	8fb10030 	lw	s1,48(sp)
    3b94:	8fb0002c 	lw	s0,44(sp)
    3b98:	2402003c 	li	v0,60
    3b9c:	03e00008 	jr	ra
    3ba0:	27bd0048 	addiu	sp,sp,72
    3ba4:	0c001ba2 	jal	6e88 <OS_CPU_SR_Restore>
    3ba8:	ae350000 	sw	s5,0(s1)
    3bac:	02402021 	move	a0,s2
    3bb0:	02802821 	move	a1,s4
    3bb4:	02603021 	move	a2,s3
    3bb8:	0c001ab5 	jal	6ad4 <OSTaskStkInit>
    3bbc:	00003821 	move	a3,zero
    3bc0:	00402821 	move	a1,v0
    3bc4:	02002021 	move	a0,s0
    3bc8:	afa00010 	sw	zero,16(sp)
    3bcc:	afa00014 	sw	zero,20(sp)
    3bd0:	afa00018 	sw	zero,24(sp)
    3bd4:	00003021 	move	a2,zero
    3bd8:	0c001a35 	jal	68d4 <OS_TCBInit>
    3bdc:	00003821 	move	a3,zero
    3be0:	14400006 	bnez	v0,3bfc <OSTaskCreate+0x124>
    3be4:	00408021 	move	s0,v0
    3be8:	9382746c 	lbu	v0,29804(gp)
    3bec:	1055000b 	beq	v0,s5,3c1c <OSTaskCreate+0x144>
    3bf0:	00000000 	nop
    3bf4:	08000ed3 	j	3b4c <OSTaskCreate+0x74>
    3bf8:	00001021 	move	v0,zero
    3bfc:	0c001b9b 	jal	6e6c <OS_CPU_SR_Save>
    3c00:	00000000 	nop
    3c04:	afa20020 	sw	v0,32(sp)
    3c08:	8fa40020 	lw	a0,32(sp)
    3c0c:	0c001ba2 	jal	6e88 <OS_CPU_SR_Restore>
    3c10:	ae200000 	sw	zero,0(s1)
    3c14:	08000ed3 	j	3b4c <OSTaskCreate+0x74>
    3c18:	02001021 	move	v0,s0
    3c1c:	0c001883 	jal	620c <OS_Sched>
    3c20:	00000000 	nop
    3c24:	08000ed3 	j	3b4c <OSTaskCreate+0x74>
    3c28:	00001021 	move	v0,zero

00003c2c <OSTaskCreateExt>:
    3c2c:	27bdffb0 	addiu	sp,sp,-80
    3c30:	afb50040 	sw	s5,64(sp)
    3c34:	afb4003c 	sw	s4,60(sp)
    3c38:	afb30038 	sw	s3,56(sp)
    3c3c:	afb20034 	sw	s2,52(sp)
    3c40:	afb10030 	sw	s1,48(sp)
    3c44:	afb0002c 	sw	s0,44(sp)
    3c48:	afbf004c 	sw	ra,76(sp)
    3c4c:	afb70048 	sw	s7,72(sp)
    3c50:	afb60044 	sw	s6,68(sp)
    3c54:	00809021 	move	s2,a0
    3c58:	00a09821 	move	s3,a1
    3c5c:	00c0a021 	move	s4,a2
    3c60:	30f000ff 	andi	s0,a3,0xff
    3c64:	97b50062 	lhu	s5,98(sp)
    3c68:	97b10072 	lhu	s1,114(sp)
    3c6c:	afa00020 	sw	zero,32(sp)
    3c70:	0c001b9b 	jal	6e6c <OS_CPU_SR_Save>
    3c74:	00000000 	nop
    3c78:	938374b0 	lbu	v1,29872(gp)
    3c7c:	afa20020 	sw	v0,32(sp)
    3c80:	14600016 	bnez	v1,3cdc <OSTaskCreateExt+0xb0>
    3c84:	3c170001 	lui	s7,0x1
    3c88:	0010b080 	sll	s6,s0,0x2
    3c8c:	26f78d20 	addiu	s7,s7,-29408
    3c90:	02f61021 	addu	v0,s7,s6
    3c94:	8c430000 	lw	v1,0(v0)
    3c98:	8fa40020 	lw	a0,32(sp)
    3c9c:	1060001e 	beqz	v1,3d18 <OSTaskCreateExt+0xec>
    3ca0:	24030001 	li	v1,1
    3ca4:	0c001ba2 	jal	6e88 <OS_CPU_SR_Restore>
    3ca8:	00000000 	nop
    3cac:	24020028 	li	v0,40
    3cb0:	8fbf004c 	lw	ra,76(sp)
    3cb4:	8fb70048 	lw	s7,72(sp)
    3cb8:	8fb60044 	lw	s6,68(sp)
    3cbc:	8fb50040 	lw	s5,64(sp)
    3cc0:	8fb4003c 	lw	s4,60(sp)
    3cc4:	8fb30038 	lw	s3,56(sp)
    3cc8:	8fb20034 	lw	s2,52(sp)
    3ccc:	8fb10030 	lw	s1,48(sp)
    3cd0:	8fb0002c 	lw	s0,44(sp)
    3cd4:	03e00008 	jr	ra
    3cd8:	27bd0050 	addiu	sp,sp,80
    3cdc:	8fa40020 	lw	a0,32(sp)
    3ce0:	0c001ba2 	jal	6e88 <OS_CPU_SR_Restore>
    3ce4:	00000000 	nop
    3ce8:	8fbf004c 	lw	ra,76(sp)
    3cec:	8fb70048 	lw	s7,72(sp)
    3cf0:	8fb60044 	lw	s6,68(sp)
    3cf4:	8fb50040 	lw	s5,64(sp)
    3cf8:	8fb4003c 	lw	s4,60(sp)
    3cfc:	8fb30038 	lw	s3,56(sp)
    3d00:	8fb20034 	lw	s2,52(sp)
    3d04:	8fb10030 	lw	s1,48(sp)
    3d08:	8fb0002c 	lw	s0,44(sp)
    3d0c:	2402003c 	li	v0,60
    3d10:	03e00008 	jr	ra
    3d14:	27bd0050 	addiu	sp,sp,80
    3d18:	0c001ba2 	jal	6e88 <OS_CPU_SR_Restore>
    3d1c:	ac430000 	sw	v1,0(v0)
    3d20:	32230003 	andi	v1,s1,0x3
    3d24:	24020003 	li	v0,3
    3d28:	14620009 	bne	v1,v0,3d50 <OSTaskCreateExt+0x124>
    3d2c:	02402021 	move	a0,s2
    3d30:	8fa20068 	lw	v0,104(sp)
    3d34:	10400006 	beqz	v0,3d50 <OSTaskCreateExt+0x124>
    3d38:	8fa30064 	lw	v1,100(sp)
    3d3c:	24630004 	addiu	v1,v1,4
    3d40:	2442ffff 	addiu	v0,v0,-1
    3d44:	1440fffd 	bnez	v0,3d3c <OSTaskCreateExt+0x110>
    3d48:	ac60fffc 	sw	zero,-4(v1)
    3d4c:	02402021 	move	a0,s2
    3d50:	02602821 	move	a1,s3
    3d54:	02803021 	move	a2,s4
    3d58:	0c001ab5 	jal	6ad4 <OSTaskStkInit>
    3d5c:	02203821 	move	a3,s1
    3d60:	00402821 	move	a1,v0
    3d64:	8fa20068 	lw	v0,104(sp)
    3d68:	8fa60064 	lw	a2,100(sp)
    3d6c:	afa20010 	sw	v0,16(sp)
    3d70:	8fa2006c 	lw	v0,108(sp)
    3d74:	02002021 	move	a0,s0
    3d78:	afa20014 	sw	v0,20(sp)
    3d7c:	afb10018 	sw	s1,24(sp)
    3d80:	0c001a35 	jal	68d4 <OS_TCBInit>
    3d84:	02a03821 	move	a3,s5
    3d88:	14400007 	bnez	v0,3da8 <OSTaskCreateExt+0x17c>
    3d8c:	00408021 	move	s0,v0
    3d90:	9383746c 	lbu	v1,29804(gp)
    3d94:	24020001 	li	v0,1
    3d98:	1062000c 	beq	v1,v0,3dcc <OSTaskCreateExt+0x1a0>
    3d9c:	00000000 	nop
    3da0:	08000f2c 	j	3cb0 <OSTaskCreateExt+0x84>
    3da4:	00001021 	move	v0,zero
    3da8:	0c001b9b 	jal	6e6c <OS_CPU_SR_Save>
    3dac:	00000000 	nop
    3db0:	afa20020 	sw	v0,32(sp)
    3db4:	8fa40020 	lw	a0,32(sp)
    3db8:	02f6b021 	addu	s6,s7,s6
    3dbc:	0c001ba2 	jal	6e88 <OS_CPU_SR_Restore>
    3dc0:	aec00000 	sw	zero,0(s6)
    3dc4:	08000f2c 	j	3cb0 <OSTaskCreateExt+0x84>
    3dc8:	02001021 	move	v0,s0
    3dcc:	0c001883 	jal	620c <OS_Sched>
    3dd0:	00000000 	nop
    3dd4:	08000f2c 	j	3cb0 <OSTaskCreateExt+0x84>
    3dd8:	00001021 	move	v0,zero

00003ddc <OSTaskDel>:
    3ddc:	938274b0 	lbu	v0,29872(gp)
    3de0:	27bdffd8 	addiu	sp,sp,-40
    3de4:	afb00018 	sw	s0,24(sp)
    3de8:	afbf0024 	sw	ra,36(sp)
    3dec:	afb20020 	sw	s2,32(sp)
    3df0:	afb1001c 	sw	s1,28(sp)
    3df4:	309000ff 	andi	s0,a0,0xff
    3df8:	afa00010 	sw	zero,16(sp)
    3dfc:	10400007 	beqz	v0,3e1c <OSTaskDel+0x40>
    3e00:	24020040 	li	v0,64
    3e04:	8fbf0024 	lw	ra,36(sp)
    3e08:	8fb20020 	lw	s2,32(sp)
    3e0c:	8fb1001c 	lw	s1,28(sp)
    3e10:	8fb00018 	lw	s0,24(sp)
    3e14:	03e00008 	jr	ra
    3e18:	27bd0028 	addiu	sp,sp,40
    3e1c:	2402003f 	li	v0,63
    3e20:	16020007 	bne	s0,v0,3e40 <OSTaskDel+0x64>
    3e24:	8fbf0024 	lw	ra,36(sp)
    3e28:	8fb20020 	lw	s2,32(sp)
    3e2c:	8fb1001c 	lw	s1,28(sp)
    3e30:	8fb00018 	lw	s0,24(sp)
    3e34:	2402003e 	li	v0,62
    3e38:	03e00008 	jr	ra
    3e3c:	27bd0028 	addiu	sp,sp,40
    3e40:	0c001b9b 	jal	6e6c <OS_CPU_SR_Save>
    3e44:	00000000 	nop
    3e48:	afa20010 	sw	v0,16(sp)
    3e4c:	240200ff 	li	v0,255
    3e50:	12020058 	beq	s0,v0,3fb4 <OSTaskDel+0x1d8>
    3e54:	8f8274b4 	lw	v0,29876(gp)
    3e58:	3c120001 	lui	s2,0x1
    3e5c:	00108880 	sll	s1,s0,0x2
    3e60:	26528d20 	addiu	s2,s2,-29408
    3e64:	02511021 	addu	v0,s2,s1
    3e68:	8c500000 	lw	s0,0(v0)
    3e6c:	12000057 	beqz	s0,3fcc <OSTaskDel+0x1f0>
    3e70:	00000000 	nop
    3e74:	24020001 	li	v0,1
    3e78:	1202005d 	beq	s0,v0,3ff0 <OSTaskDel+0x214>
    3e7c:	278374a4 	addiu	v1,gp,29860
    3e80:	92020038 	lbu	v0,56(s0)
    3e84:	00621821 	addu	v1,v1,v0
    3e88:	92020039 	lbu	v0,57(s0)
    3e8c:	90640000 	lbu	a0,0(v1)
    3e90:	00021027 	nor	v0,zero,v0
    3e94:	00441024 	and	v0,v0,a0
    3e98:	10400040 	beqz	v0,3f9c <OSTaskDel+0x1c0>
    3e9c:	a0620000 	sb	v0,0(v1)
    3ea0:	8e05001c 	lw	a1,28(s0)
    3ea4:	10a00003 	beqz	a1,3eb4 <OSTaskDel+0xd8>
    3ea8:	00000000 	nop
    3eac:	0c0017ff 	jal	5ffc <OS_EventTaskRemove>
    3eb0:	02002021 	move	a0,s0
    3eb4:	8e050020 	lw	a1,32(s0)
    3eb8:	10a00003 	beqz	a1,3ec8 <OSTaskDel+0xec>
    3ebc:	00000000 	nop
    3ec0:	0c00180e 	jal	6038 <OS_EventTaskRemoveMulti>
    3ec4:	02002021 	move	a0,s0
    3ec8:	8e040028 	lw	a0,40(s0)
    3ecc:	10800004 	beqz	a0,3ee0 <OSTaskDel+0x104>
    3ed0:	93827464 	lbu	v0,29796(gp)
    3ed4:	0c000434 	jal	10d0 <OS_FlagUnlink>
    3ed8:	00000000 	nop
    3edc:	93827464 	lbu	v0,29796(gp)
    3ee0:	240300ff 	li	v1,255
    3ee4:	ae000030 	sw	zero,48(s0)
    3ee8:	a2000034 	sb	zero,52(s0)
    3eec:	10430003 	beq	v0,v1,3efc <OSTaskDel+0x120>
    3ef0:	a2000035 	sb	zero,53(s0)
    3ef4:	24420001 	addiu	v0,v0,1
    3ef8:	a3827464 	sb	v0,29796(gp)
    3efc:	8fa40010 	lw	a0,16(sp)
    3f00:	0c001ba2 	jal	6e88 <OS_CPU_SR_Restore>
    3f04:	00000000 	nop
    3f08:	0c0017bc 	jal	5ef0 <OS_Dummy>
    3f0c:	00000000 	nop
    3f10:	0c001b9b 	jal	6e6c <OS_CPU_SR_Save>
    3f14:	00000000 	nop
    3f18:	93837464 	lbu	v1,29796(gp)
    3f1c:	afa20010 	sw	v0,16(sp)
    3f20:	1460001c 	bnez	v1,3f94 <OSTaskDel+0x1b8>
    3f24:	2463ffff 	addiu	v1,v1,-1
    3f28:	02002021 	move	a0,s0
    3f2c:	0c001aad 	jal	6ab4 <OSTaskDelHook>
    3f30:	02518821 	addu	s1,s2,s1
    3f34:	93837491 	lbu	v1,29841(gp)
    3f38:	ae200000 	sw	zero,0(s1)
    3f3c:	8e020018 	lw	v0,24(s0)
    3f40:	2463ffff 	addiu	v1,v1,-1
    3f44:	10400026 	beqz	v0,3fe0 <OSTaskDel+0x204>
    3f48:	a3837491 	sb	v1,29841(gp)
    3f4c:	8e030014 	lw	v1,20(s0)
    3f50:	ac430014 	sw	v1,20(v0)
    3f54:	8e030014 	lw	v1,20(s0)
    3f58:	ac620018 	sw	v0,24(v1)
    3f5c:	8f82748c 	lw	v0,29836(gp)
    3f60:	8fa40010 	lw	a0,16(sp)
    3f64:	ae020014 	sw	v0,20(s0)
    3f68:	3c020000 	lui	v0,0x0
    3f6c:	24427404 	addiu	v0,v0,29700
    3f70:	ae020050 	sw	v0,80(s0)
    3f74:	0c001ba2 	jal	6e88 <OS_CPU_SR_Restore>
    3f78:	af90748c 	sw	s0,29836(gp)
    3f7c:	9383746c 	lbu	v1,29804(gp)
    3f80:	24020001 	li	v0,1
    3f84:	1062000d 	beq	v1,v0,3fbc <OSTaskDel+0x1e0>
    3f88:	00000000 	nop
    3f8c:	08000f81 	j	3e04 <OSTaskDel+0x28>
    3f90:	00001021 	move	v0,zero
    3f94:	08000fca 	j	3f28 <OSTaskDel+0x14c>
    3f98:	a3837464 	sb	v1,29796(gp)
    3f9c:	9202003a 	lbu	v0,58(s0)
    3fa0:	938374a0 	lbu	v1,29856(gp)
    3fa4:	00021027 	nor	v0,zero,v0
    3fa8:	00431024 	and	v0,v0,v1
    3fac:	08000fa8 	j	3ea0 <OSTaskDel+0xc4>
    3fb0:	a38274a0 	sb	v0,29856(gp)
    3fb4:	08000f96 	j	3e58 <OSTaskDel+0x7c>
    3fb8:	90500036 	lbu	s0,54(v0)
    3fbc:	0c001883 	jal	620c <OS_Sched>
    3fc0:	00000000 	nop
    3fc4:	08000f81 	j	3e04 <OSTaskDel+0x28>
    3fc8:	00001021 	move	v0,zero
    3fcc:	8fa40010 	lw	a0,16(sp)
    3fd0:	0c001ba2 	jal	6e88 <OS_CPU_SR_Restore>
    3fd4:	00000000 	nop
    3fd8:	08000f81 	j	3e04 <OSTaskDel+0x28>
    3fdc:	24020043 	li	v0,67
    3fe0:	8e020014 	lw	v0,20(s0)
    3fe4:	ac400018 	sw	zero,24(v0)
    3fe8:	08000fd7 	j	3f5c <OSTaskDel+0x180>
    3fec:	af827478 	sw	v0,29816(gp)
    3ff0:	8fa40010 	lw	a0,16(sp)
    3ff4:	0c001ba2 	jal	6e88 <OS_CPU_SR_Restore>
    3ff8:	00000000 	nop
    3ffc:	08000f81 	j	3e04 <OSTaskDel+0x28>
    4000:	2402003d 	li	v0,61

00004004 <OSTaskDelReq>:
    4004:	27bdffd8 	addiu	sp,sp,-40
    4008:	afb10020 	sw	s1,32(sp)
    400c:	afb0001c 	sw	s0,28(sp)
    4010:	2411003f 	li	s1,63
    4014:	309000ff 	andi	s0,a0,0xff
    4018:	afbf0024 	sw	ra,36(sp)
    401c:	afa00010 	sw	zero,16(sp)
    4020:	12110018 	beq	s0,s1,4084 <OSTaskDelReq+0x80>
    4024:	240200ff 	li	v0,255
    4028:	1202001c 	beq	s0,v0,409c <OSTaskDelReq+0x98>
    402c:	00000000 	nop
    4030:	0c001b9b 	jal	6e6c <OS_CPU_SR_Save>
    4034:	00108080 	sll	s0,s0,0x2
    4038:	3c030001 	lui	v1,0x1
    403c:	24638d20 	addiu	v1,v1,-29408
    4040:	02038021 	addu	s0,s0,v1
    4044:	8e030000 	lw	v1,0(s0)
    4048:	afa20010 	sw	v0,16(sp)
    404c:	10600028 	beqz	v1,40f0 <OSTaskDelReq+0xec>
    4050:	00000000 	nop
    4054:	24020001 	li	v0,1
    4058:	8fa40010 	lw	a0,16(sp)
    405c:	1062001c 	beq	v1,v0,40d0 <OSTaskDelReq+0xcc>
    4060:	00000000 	nop
    4064:	0c001ba2 	jal	6e88 <OS_CPU_SR_Restore>
    4068:	a071003b 	sb	s1,59(v1)
    406c:	00001021 	move	v0,zero
    4070:	8fbf0024 	lw	ra,36(sp)
    4074:	8fb10020 	lw	s1,32(sp)
    4078:	8fb0001c 	lw	s0,28(sp)
    407c:	03e00008 	jr	ra
    4080:	27bd0028 	addiu	sp,sp,40
    4084:	8fbf0024 	lw	ra,36(sp)
    4088:	8fb10020 	lw	s1,32(sp)
    408c:	8fb0001c 	lw	s0,28(sp)
    4090:	2402003e 	li	v0,62
    4094:	03e00008 	jr	ra
    4098:	27bd0028 	addiu	sp,sp,40
    409c:	0c001b9b 	jal	6e6c <OS_CPU_SR_Save>
    40a0:	00000000 	nop
    40a4:	afa20010 	sw	v0,16(sp)
    40a8:	8fa40010 	lw	a0,16(sp)
    40ac:	8f8274b4 	lw	v0,29876(gp)
    40b0:	0c001ba2 	jal	6e88 <OS_CPU_SR_Restore>
    40b4:	9050003b 	lbu	s0,59(v0)
    40b8:	8fbf0024 	lw	ra,36(sp)
    40bc:	02001021 	move	v0,s0
    40c0:	8fb10020 	lw	s1,32(sp)
    40c4:	8fb0001c 	lw	s0,28(sp)
    40c8:	03e00008 	jr	ra
    40cc:	27bd0028 	addiu	sp,sp,40
    40d0:	0c001ba2 	jal	6e88 <OS_CPU_SR_Restore>
    40d4:	00000000 	nop
    40d8:	8fbf0024 	lw	ra,36(sp)
    40dc:	8fb10020 	lw	s1,32(sp)
    40e0:	8fb0001c 	lw	s0,28(sp)
    40e4:	2402003d 	li	v0,61
    40e8:	03e00008 	jr	ra
    40ec:	27bd0028 	addiu	sp,sp,40
    40f0:	8fa40010 	lw	a0,16(sp)
    40f4:	0c001ba2 	jal	6e88 <OS_CPU_SR_Restore>
    40f8:	00000000 	nop
    40fc:	0800101c 	j	4070 <OSTaskDelReq+0x6c>
    4100:	24020043 	li	v0,67

00004104 <OSTaskNameGet>:
    4104:	938274b0 	lbu	v0,29872(gp)
    4108:	27bdffd0 	addiu	sp,sp,-48
    410c:	afb10028 	sw	s1,40(sp)
    4110:	afb00024 	sw	s0,36(sp)
    4114:	afbf002c 	sw	ra,44(sp)
    4118:	00c08021 	move	s0,a2
    411c:	309100ff 	andi	s1,a0,0xff
    4120:	afa00010 	sw	zero,16(sp)
    4124:	10400008 	beqz	v0,4148 <OSTaskNameGet+0x44>
    4128:	24020011 	li	v0,17
    412c:	a0c20000 	sb	v0,0(a2)
    4130:	00001021 	move	v0,zero
    4134:	8fbf002c 	lw	ra,44(sp)
    4138:	8fb10028 	lw	s1,40(sp)
    413c:	8fb00024 	lw	s0,36(sp)
    4140:	03e00008 	jr	ra
    4144:	27bd0030 	addiu	sp,sp,48
    4148:	0c001b9b 	jal	6e6c <OS_CPU_SR_Save>
    414c:	afa50018 	sw	a1,24(sp)
    4150:	afa20010 	sw	v0,16(sp)
    4154:	240200ff 	li	v0,255
    4158:	12220018 	beq	s1,v0,41bc <OSTaskNameGet+0xb8>
    415c:	8fa50018 	lw	a1,24(sp)
    4160:	3c020001 	lui	v0,0x1
    4164:	24428d20 	addiu	v0,v0,-29408
    4168:	00118880 	sll	s1,s1,0x2
    416c:	02228821 	addu	s1,s1,v0
    4170:	8e220000 	lw	v0,0(s1)
    4174:	10400014 	beqz	v0,41c8 <OSTaskNameGet+0xc4>
    4178:	24030001 	li	v1,1
    417c:	10430012 	beq	v0,v1,41c8 <OSTaskNameGet+0xc4>
    4180:	00000000 	nop
    4184:	8c420050 	lw	v0,80(v0)
    4188:	00402021 	move	a0,v0
    418c:	0c0019d4 	jal	6750 <OS_StrLen>
    4190:	aca20000 	sw	v0,0(a1)
    4194:	8fa40010 	lw	a0,16(sp)
    4198:	0c001ba2 	jal	6e88 <OS_CPU_SR_Restore>
    419c:	00408821 	move	s1,v0
    41a0:	a2000000 	sb	zero,0(s0)
    41a4:	8fbf002c 	lw	ra,44(sp)
    41a8:	02201021 	move	v0,s1
    41ac:	8fb00024 	lw	s0,36(sp)
    41b0:	8fb10028 	lw	s1,40(sp)
    41b4:	03e00008 	jr	ra
    41b8:	27bd0030 	addiu	sp,sp,48
    41bc:	8f8274b4 	lw	v0,29876(gp)
    41c0:	08001058 	j	4160 <OSTaskNameGet+0x5c>
    41c4:	90510036 	lbu	s1,54(v0)
    41c8:	8fa40010 	lw	a0,16(sp)
    41cc:	0c001ba2 	jal	6e88 <OS_CPU_SR_Restore>
    41d0:	00000000 	nop
    41d4:	24020043 	li	v0,67
    41d8:	a2020000 	sb	v0,0(s0)
    41dc:	0800104d 	j	4134 <OSTaskNameGet+0x30>
    41e0:	00001021 	move	v0,zero

000041e4 <OSTaskNameSet>:
    41e4:	938274b0 	lbu	v0,29872(gp)
    41e8:	27bdffd0 	addiu	sp,sp,-48
    41ec:	afb10028 	sw	s1,40(sp)
    41f0:	afb00024 	sw	s0,36(sp)
    41f4:	afbf002c 	sw	ra,44(sp)
    41f8:	00c08021 	move	s0,a2
    41fc:	309100ff 	andi	s1,a0,0xff
    4200:	afa00010 	sw	zero,16(sp)
    4204:	10400007 	beqz	v0,4224 <OSTaskNameSet+0x40>
    4208:	24020012 	li	v0,18
    420c:	a0c20000 	sb	v0,0(a2)
    4210:	8fbf002c 	lw	ra,44(sp)
    4214:	8fb10028 	lw	s1,40(sp)
    4218:	8fb00024 	lw	s0,36(sp)
    421c:	03e00008 	jr	ra
    4220:	27bd0030 	addiu	sp,sp,48
    4224:	0c001b9b 	jal	6e6c <OS_CPU_SR_Save>
    4228:	afa50018 	sw	a1,24(sp)
    422c:	afa20010 	sw	v0,16(sp)
    4230:	240200ff 	li	v0,255
    4234:	12220013 	beq	s1,v0,4284 <OSTaskNameSet+0xa0>
    4238:	8fa50018 	lw	a1,24(sp)
    423c:	3c020001 	lui	v0,0x1
    4240:	24428d20 	addiu	v0,v0,-29408
    4244:	00118880 	sll	s1,s1,0x2
    4248:	02228821 	addu	s1,s1,v0
    424c:	8e220000 	lw	v0,0(s1)
    4250:	10400014 	beqz	v0,42a4 <OSTaskNameSet+0xc0>
    4254:	24030001 	li	v1,1
    4258:	8fa40010 	lw	a0,16(sp)
    425c:	1043000c 	beq	v0,v1,4290 <OSTaskNameSet+0xac>
    4260:	00000000 	nop
    4264:	0c001ba2 	jal	6e88 <OS_CPU_SR_Restore>
    4268:	ac450050 	sw	a1,80(v0)
    426c:	a2000000 	sb	zero,0(s0)
    4270:	8fbf002c 	lw	ra,44(sp)
    4274:	8fb10028 	lw	s1,40(sp)
    4278:	8fb00024 	lw	s0,36(sp)
    427c:	03e00008 	jr	ra
    4280:	27bd0030 	addiu	sp,sp,48
    4284:	8f8274b4 	lw	v0,29876(gp)
    4288:	0800108f 	j	423c <OSTaskNameSet+0x58>
    428c:	90510036 	lbu	s1,54(v0)
    4290:	0c001ba2 	jal	6e88 <OS_CPU_SR_Restore>
    4294:	00000000 	nop
    4298:	24020043 	li	v0,67
    429c:	08001084 	j	4210 <OSTaskNameSet+0x2c>
    42a0:	a2020000 	sb	v0,0(s0)
    42a4:	8fa40010 	lw	a0,16(sp)
    42a8:	0c001ba2 	jal	6e88 <OS_CPU_SR_Restore>
    42ac:	00000000 	nop
    42b0:	24020043 	li	v0,67
    42b4:	08001084 	j	4210 <OSTaskNameSet+0x2c>
    42b8:	a2020000 	sb	v0,0(s0)

000042bc <OSTaskResume>:
    42bc:	27bdffe0 	addiu	sp,sp,-32
    42c0:	afb00018 	sw	s0,24(sp)
    42c4:	afbf001c 	sw	ra,28(sp)
    42c8:	309000ff 	andi	s0,a0,0xff
    42cc:	afa00010 	sw	zero,16(sp)
    42d0:	0c001b9b 	jal	6e6c <OS_CPU_SR_Save>
    42d4:	00108080 	sll	s0,s0,0x2
    42d8:	3c030001 	lui	v1,0x1
    42dc:	24638d20 	addiu	v1,v1,-29408
    42e0:	02038021 	addu	s0,s0,v1
    42e4:	8e030000 	lw	v1,0(s0)
    42e8:	afa20010 	sw	v0,16(sp)
    42ec:	1060002f 	beqz	v1,43ac <OSTaskResume+0xf0>
    42f0:	24100001 	li	s0,1
    42f4:	10700035 	beq	v1,s0,43cc <OSTaskResume+0x110>
    42f8:	00000000 	nop
    42fc:	90620034 	lbu	v0,52(v1)
    4300:	30440008 	andi	a0,v0,0x8
    4304:	10800019 	beqz	a0,436c <OSTaskResume+0xb0>
    4308:	304200f7 	andi	v0,v0,0xf7
    430c:	1440001f 	bnez	v0,438c <OSTaskResume+0xd0>
    4310:	a0620034 	sb	v0,52(v1)
    4314:	8c620030 	lw	v0,48(v1)
    4318:	1440001c 	bnez	v0,438c <OSTaskResume+0xd0>
    431c:	278474a4 	addiu	a0,gp,29860
    4320:	90620038 	lbu	v0,56(v1)
    4324:	00821021 	addu	v0,a0,v0
    4328:	90460000 	lbu	a2,0(v0)
    432c:	938774a0 	lbu	a3,29856(gp)
    4330:	9065003a 	lbu	a1,58(v1)
    4334:	90630039 	lbu	v1,57(v1)
    4338:	8fa40010 	lw	a0,16(sp)
    433c:	00e52825 	or	a1,a3,a1
    4340:	00c31825 	or	v1,a2,v1
    4344:	a0430000 	sb	v1,0(v0)
    4348:	0c001ba2 	jal	6e88 <OS_CPU_SR_Restore>
    434c:	a38574a0 	sb	a1,29856(gp)
    4350:	9382746c 	lbu	v0,29804(gp)
    4354:	10500025 	beq	v0,s0,43ec <OSTaskResume+0x130>
    4358:	8fbf001c 	lw	ra,28(sp)
    435c:	8fb00018 	lw	s0,24(sp)
    4360:	00001021 	move	v0,zero
    4364:	03e00008 	jr	ra
    4368:	27bd0020 	addiu	sp,sp,32
    436c:	8fa40010 	lw	a0,16(sp)
    4370:	0c001ba2 	jal	6e88 <OS_CPU_SR_Restore>
    4374:	00000000 	nop
    4378:	24020044 	li	v0,68
    437c:	8fbf001c 	lw	ra,28(sp)
    4380:	8fb00018 	lw	s0,24(sp)
    4384:	03e00008 	jr	ra
    4388:	27bd0020 	addiu	sp,sp,32
    438c:	8fa40010 	lw	a0,16(sp)
    4390:	0c001ba2 	jal	6e88 <OS_CPU_SR_Restore>
    4394:	00000000 	nop
    4398:	8fbf001c 	lw	ra,28(sp)
    439c:	8fb00018 	lw	s0,24(sp)
    43a0:	00001021 	move	v0,zero
    43a4:	03e00008 	jr	ra
    43a8:	27bd0020 	addiu	sp,sp,32
    43ac:	8fa40010 	lw	a0,16(sp)
    43b0:	0c001ba2 	jal	6e88 <OS_CPU_SR_Restore>
    43b4:	00000000 	nop
    43b8:	8fbf001c 	lw	ra,28(sp)
    43bc:	8fb00018 	lw	s0,24(sp)
    43c0:	24020046 	li	v0,70
    43c4:	03e00008 	jr	ra
    43c8:	27bd0020 	addiu	sp,sp,32
    43cc:	8fa40010 	lw	a0,16(sp)
    43d0:	0c001ba2 	jal	6e88 <OS_CPU_SR_Restore>
    43d4:	00000000 	nop
    43d8:	8fbf001c 	lw	ra,28(sp)
    43dc:	8fb00018 	lw	s0,24(sp)
    43e0:	24020043 	li	v0,67
    43e4:	03e00008 	jr	ra
    43e8:	27bd0020 	addiu	sp,sp,32
    43ec:	0c001883 	jal	620c <OS_Sched>
    43f0:	00000000 	nop
    43f4:	080010df 	j	437c <OSTaskResume+0xc0>
    43f8:	00001021 	move	v0,zero

000043fc <OSTaskStkChk>:
    43fc:	27bdffd8 	addiu	sp,sp,-40
    4400:	aca00000 	sw	zero,0(a1)
    4404:	aca00004 	sw	zero,4(a1)
    4408:	afb1001c 	sw	s1,28(sp)
    440c:	afb00018 	sw	s0,24(sp)
    4410:	afbf0024 	sw	ra,36(sp)
    4414:	afb20020 	sw	s2,32(sp)
    4418:	00a08021 	move	s0,a1
    441c:	309100ff 	andi	s1,a0,0xff
    4420:	afa00010 	sw	zero,16(sp)
    4424:	0c001b9b 	jal	6e6c <OS_CPU_SR_Save>
    4428:	00000000 	nop
    442c:	afa20010 	sw	v0,16(sp)
    4430:	240200ff 	li	v0,255
    4434:	12220017 	beq	s1,v0,4494 <OSTaskStkChk+0x98>
    4438:	3c020001 	lui	v0,0x1
    443c:	00118880 	sll	s1,s1,0x2
    4440:	24428d20 	addiu	v0,v0,-29408
    4444:	02228821 	addu	s1,s1,v0
    4448:	8e230000 	lw	v1,0(s1)
    444c:	1060001a 	beqz	v1,44b8 <OSTaskStkChk+0xbc>
    4450:	24020001 	li	v0,1
    4454:	10620018 	beq	v1,v0,44b8 <OSTaskStkChk+0xbc>
    4458:	00000000 	nop
    445c:	94620010 	lhu	v0,16(v1)
    4460:	8fa40010 	lw	a0,16(sp)
    4464:	30420001 	andi	v0,v0,0x1
    4468:	1440001d 	bnez	v0,44e0 <OSTaskStkChk+0xe4>
    446c:	00000000 	nop
    4470:	0c001ba2 	jal	6e88 <OS_CPU_SR_Restore>
    4474:	00000000 	nop
    4478:	8fbf0024 	lw	ra,36(sp)
    447c:	8fb20020 	lw	s2,32(sp)
    4480:	8fb1001c 	lw	s1,28(sp)
    4484:	8fb00018 	lw	s0,24(sp)
    4488:	24020045 	li	v0,69
    448c:	03e00008 	jr	ra
    4490:	27bd0028 	addiu	sp,sp,40
    4494:	8f8274b4 	lw	v0,29876(gp)
    4498:	90510036 	lbu	s1,54(v0)
    449c:	3c020001 	lui	v0,0x1
    44a0:	00118880 	sll	s1,s1,0x2
    44a4:	24428d20 	addiu	v0,v0,-29408
    44a8:	02228821 	addu	s1,s1,v0
    44ac:	8e230000 	lw	v1,0(s1)
    44b0:	1460ffe8 	bnez	v1,4454 <OSTaskStkChk+0x58>
    44b4:	24020001 	li	v0,1
    44b8:	8fa40010 	lw	a0,16(sp)
    44bc:	0c001ba2 	jal	6e88 <OS_CPU_SR_Restore>
    44c0:	00000000 	nop
    44c4:	8fbf0024 	lw	ra,36(sp)
    44c8:	8fb20020 	lw	s2,32(sp)
    44cc:	8fb1001c 	lw	s1,28(sp)
    44d0:	8fb00018 	lw	s0,24(sp)
    44d4:	24020043 	li	v0,67
    44d8:	03e00008 	jr	ra
    44dc:	27bd0028 	addiu	sp,sp,40
    44e0:	8c710008 	lw	s1,8(v1)
    44e4:	0c001ba2 	jal	6e88 <OS_CPU_SR_Restore>
    44e8:	8c72000c 	lw	s2,12(v1)
    44ec:	8e230000 	lw	v1,0(s1)
    44f0:	14600011 	bnez	v1,4538 <OSTaskStkChk+0x13c>
    44f4:	26220004 	addiu	v0,s1,4
    44f8:	24420004 	addiu	v0,v0,4
    44fc:	8c44fffc 	lw	a0,-4(v0)
    4500:	1080fffd 	beqz	a0,44f8 <OSTaskStkChk+0xfc>
    4504:	24630001 	addiu	v1,v1,1
    4508:	00031080 	sll	v0,v1,0x2
    450c:	02431823 	subu	v1,s2,v1
    4510:	8fbf0024 	lw	ra,36(sp)
    4514:	00031880 	sll	v1,v1,0x2
    4518:	ae020000 	sw	v0,0(s0)
    451c:	ae030004 	sw	v1,4(s0)
    4520:	8fb20020 	lw	s2,32(sp)
    4524:	8fb1001c 	lw	s1,28(sp)
    4528:	8fb00018 	lw	s0,24(sp)
    452c:	00001021 	move	v0,zero
    4530:	03e00008 	jr	ra
    4534:	27bd0028 	addiu	sp,sp,40
    4538:	00001021 	move	v0,zero
    453c:	08001143 	j	450c <OSTaskStkChk+0x110>
    4540:	00001821 	move	v1,zero

00004544 <OSTaskSuspend>:
    4544:	27bdffd8 	addiu	sp,sp,-40
    4548:	afb0001c 	sw	s0,28(sp)
    454c:	afbf0024 	sw	ra,36(sp)
    4550:	afb10020 	sw	s1,32(sp)
    4554:	309000ff 	andi	s0,a0,0xff
    4558:	afa00010 	sw	zero,16(sp)
    455c:	0c001b9b 	jal	6e6c <OS_CPU_SR_Save>
    4560:	00000000 	nop
    4564:	afa20010 	sw	v0,16(sp)
    4568:	240200ff 	li	v0,255
    456c:	12020035 	beq	s0,v0,4644 <OSTaskSuspend+0x100>
    4570:	8f8274b4 	lw	v0,29876(gp)
    4574:	90510036 	lbu	s1,54(v0)
    4578:	3c020001 	lui	v0,0x1
    457c:	02308826 	xor	s1,s1,s0
    4580:	24428d20 	addiu	v0,v0,-29408
    4584:	00108080 	sll	s0,s0,0x2
    4588:	02028021 	addu	s0,s0,v0
    458c:	8e020000 	lw	v0,0(s0)
    4590:	10400034 	beqz	v0,4664 <OSTaskSuspend+0x120>
    4594:	2e310001 	sltiu	s1,s1,1
    4598:	24030001 	li	v1,1
    459c:	1043003a 	beq	v0,v1,4688 <OSTaskSuspend+0x144>
    45a0:	278474a4 	addiu	a0,gp,29860
    45a4:	90430038 	lbu	v1,56(v0)
    45a8:	00832021 	addu	a0,a0,v1
    45ac:	90430039 	lbu	v1,57(v0)
    45b0:	90850000 	lbu	a1,0(a0)
    45b4:	00031827 	nor	v1,zero,v1
    45b8:	00651824 	and	v1,v1,a1
    45bc:	1060000d 	beqz	v1,45f4 <OSTaskSuspend+0xb0>
    45c0:	a0830000 	sb	v1,0(a0)
    45c4:	90430034 	lbu	v1,52(v0)
    45c8:	8fa40010 	lw	a0,16(sp)
    45cc:	34630008 	ori	v1,v1,0x8
    45d0:	0c001ba2 	jal	6e88 <OS_CPU_SR_Restore>
    45d4:	a0430034 	sb	v1,52(v0)
    45d8:	16200012 	bnez	s1,4624 <OSTaskSuspend+0xe0>
    45dc:	8fbf0024 	lw	ra,36(sp)
    45e0:	8fb10020 	lw	s1,32(sp)
    45e4:	8fb0001c 	lw	s0,28(sp)
    45e8:	00001021 	move	v0,zero
    45ec:	03e00008 	jr	ra
    45f0:	27bd0028 	addiu	sp,sp,40
    45f4:	9043003a 	lbu	v1,58(v0)
    45f8:	938474a0 	lbu	a0,29856(gp)
    45fc:	00031827 	nor	v1,zero,v1
    4600:	00641824 	and	v1,v1,a0
    4604:	a38374a0 	sb	v1,29856(gp)
    4608:	90430034 	lbu	v1,52(v0)
    460c:	8fa40010 	lw	a0,16(sp)
    4610:	34630008 	ori	v1,v1,0x8
    4614:	0c001ba2 	jal	6e88 <OS_CPU_SR_Restore>
    4618:	a0430034 	sb	v1,52(v0)
    461c:	1220fff0 	beqz	s1,45e0 <OSTaskSuspend+0x9c>
    4620:	8fbf0024 	lw	ra,36(sp)
    4624:	0c001883 	jal	620c <OS_Sched>
    4628:	00000000 	nop
    462c:	8fbf0024 	lw	ra,36(sp)
    4630:	8fb10020 	lw	s1,32(sp)
    4634:	8fb0001c 	lw	s0,28(sp)
    4638:	00001021 	move	v0,zero
    463c:	03e00008 	jr	ra
    4640:	27bd0028 	addiu	sp,sp,40
    4644:	90500036 	lbu	s0,54(v0)
    4648:	3c020001 	lui	v0,0x1
    464c:	24428d20 	addiu	v0,v0,-29408
    4650:	00108080 	sll	s0,s0,0x2
    4654:	02028021 	addu	s0,s0,v0
    4658:	8e020000 	lw	v0,0(s0)
    465c:	1440ffce 	bnez	v0,4598 <OSTaskSuspend+0x54>
    4660:	24110001 	li	s1,1
    4664:	8fa40010 	lw	a0,16(sp)
    4668:	0c001ba2 	jal	6e88 <OS_CPU_SR_Restore>
    466c:	00000000 	nop
    4670:	8fbf0024 	lw	ra,36(sp)
    4674:	8fb10020 	lw	s1,32(sp)
    4678:	8fb0001c 	lw	s0,28(sp)
    467c:	24020048 	li	v0,72
    4680:	03e00008 	jr	ra
    4684:	27bd0028 	addiu	sp,sp,40
    4688:	8fa40010 	lw	a0,16(sp)
    468c:	0c001ba2 	jal	6e88 <OS_CPU_SR_Restore>
    4690:	00000000 	nop
    4694:	8fbf0024 	lw	ra,36(sp)
    4698:	8fb10020 	lw	s1,32(sp)
    469c:	8fb0001c 	lw	s0,28(sp)
    46a0:	24020043 	li	v0,67
    46a4:	03e00008 	jr	ra
    46a8:	27bd0028 	addiu	sp,sp,40

000046ac <OSTaskQuery>:
    46ac:	27bdffd8 	addiu	sp,sp,-40
    46b0:	afb10020 	sw	s1,32(sp)
    46b4:	afb0001c 	sw	s0,28(sp)
    46b8:	afbf0024 	sw	ra,36(sp)
    46bc:	00a08821 	move	s1,a1
    46c0:	309000ff 	andi	s0,a0,0xff
    46c4:	afa00010 	sw	zero,16(sp)
    46c8:	0c001b9b 	jal	6e6c <OS_CPU_SR_Save>
    46cc:	00000000 	nop
    46d0:	afa20010 	sw	v0,16(sp)
    46d4:	240200ff 	li	v0,255
    46d8:	12020014 	beq	s0,v0,472c <OSTaskQuery+0x80>
    46dc:	3c020001 	lui	v0,0x1
    46e0:	00108080 	sll	s0,s0,0x2
    46e4:	24428d20 	addiu	v0,v0,-29408
    46e8:	02028021 	addu	s0,s0,v0
    46ec:	8e050000 	lw	a1,0(s0)
    46f0:	10a00017 	beqz	a1,4750 <OSTaskQuery+0xa4>
    46f4:	24030001 	li	v1,1
    46f8:	10a3001e 	beq	a1,v1,4774 <OSTaskQuery+0xc8>
    46fc:	02202021 	move	a0,s1
    4700:	0c001877 	jal	61dc <OS_MemCopy>
    4704:	24060058 	li	a2,88
    4708:	8fa40010 	lw	a0,16(sp)
    470c:	0c001ba2 	jal	6e88 <OS_CPU_SR_Restore>
    4710:	00000000 	nop
    4714:	8fbf0024 	lw	ra,36(sp)
    4718:	8fb10020 	lw	s1,32(sp)
    471c:	8fb0001c 	lw	s0,28(sp)
    4720:	00001021 	move	v0,zero
    4724:	03e00008 	jr	ra
    4728:	27bd0028 	addiu	sp,sp,40
    472c:	8f8274b4 	lw	v0,29876(gp)
    4730:	90500036 	lbu	s0,54(v0)
    4734:	3c020001 	lui	v0,0x1
    4738:	00108080 	sll	s0,s0,0x2
    473c:	24428d20 	addiu	v0,v0,-29408
    4740:	02028021 	addu	s0,s0,v0
    4744:	8e050000 	lw	a1,0(s0)
    4748:	14a0ffeb 	bnez	a1,46f8 <OSTaskQuery+0x4c>
    474c:	24030001 	li	v1,1
    4750:	8fa40010 	lw	a0,16(sp)
    4754:	0c001ba2 	jal	6e88 <OS_CPU_SR_Restore>
    4758:	00000000 	nop
    475c:	8fbf0024 	lw	ra,36(sp)
    4760:	8fb10020 	lw	s1,32(sp)
    4764:	8fb0001c 	lw	s0,28(sp)
    4768:	24020029 	li	v0,41
    476c:	03e00008 	jr	ra
    4770:	27bd0028 	addiu	sp,sp,40
    4774:	8fa40010 	lw	a0,16(sp)
    4778:	0c001ba2 	jal	6e88 <OS_CPU_SR_Restore>
    477c:	00000000 	nop
    4780:	8fbf0024 	lw	ra,36(sp)
    4784:	8fb10020 	lw	s1,32(sp)
    4788:	8fb0001c 	lw	s0,28(sp)
    478c:	24020043 	li	v0,67
    4790:	03e00008 	jr	ra
    4794:	27bd0028 	addiu	sp,sp,40

00004798 <OSTaskRegGet>:
    4798:	27bdffd8 	addiu	sp,sp,-40
    479c:	afb20020 	sw	s2,32(sp)
    47a0:	afb1001c 	sw	s1,28(sp)
    47a4:	afb00018 	sw	s0,24(sp)
    47a8:	afbf0024 	sw	ra,36(sp)
    47ac:	00c08821 	move	s1,a2
    47b0:	309000ff 	andi	s0,a0,0xff
    47b4:	30b200ff 	andi	s2,a1,0xff
    47b8:	afa00010 	sw	zero,16(sp)
    47bc:	0c001b9b 	jal	6e6c <OS_CPU_SR_Save>
    47c0:	00000000 	nop
    47c4:	afa20010 	sw	v0,16(sp)
    47c8:	240200ff 	li	v0,255
    47cc:	12020013 	beq	s0,v0,481c <OSTaskRegGet+0x84>
    47d0:	3c020001 	lui	v0,0x1
    47d4:	24428d20 	addiu	v0,v0,-29408
    47d8:	00108080 	sll	s0,s0,0x2
    47dc:	02028021 	addu	s0,s0,v0
    47e0:	8e020000 	lw	v0,0(s0)
    47e4:	26520014 	addiu	s2,s2,20
    47e8:	8fa40010 	lw	a0,16(sp)
    47ec:	00129080 	sll	s2,s2,0x2
    47f0:	00529021 	addu	s2,v0,s2
    47f4:	0c001ba2 	jal	6e88 <OS_CPU_SR_Restore>
    47f8:	8e500004 	lw	s0,4(s2)
    47fc:	a2200000 	sb	zero,0(s1)
    4800:	8fbf0024 	lw	ra,36(sp)
    4804:	02001021 	move	v0,s0
    4808:	8fb20020 	lw	s2,32(sp)
    480c:	8fb1001c 	lw	s1,28(sp)
    4810:	8fb00018 	lw	s0,24(sp)
    4814:	03e00008 	jr	ra
    4818:	27bd0028 	addiu	sp,sp,40
    481c:	8f8274b4 	lw	v0,29876(gp)
    4820:	26520014 	addiu	s2,s2,20
    4824:	8fa40010 	lw	a0,16(sp)
    4828:	00129080 	sll	s2,s2,0x2
    482c:	00529021 	addu	s2,v0,s2
    4830:	0c001ba2 	jal	6e88 <OS_CPU_SR_Restore>
    4834:	8e500004 	lw	s0,4(s2)
    4838:	a2200000 	sb	zero,0(s1)
    483c:	8fbf0024 	lw	ra,36(sp)
    4840:	02001021 	move	v0,s0
    4844:	8fb20020 	lw	s2,32(sp)
    4848:	8fb1001c 	lw	s1,28(sp)
    484c:	8fb00018 	lw	s0,24(sp)
    4850:	03e00008 	jr	ra
    4854:	27bd0028 	addiu	sp,sp,40

00004858 <OSTaskRegSet>:
    4858:	27bdffd0 	addiu	sp,sp,-48
    485c:	afb30028 	sw	s3,40(sp)
    4860:	afb20024 	sw	s2,36(sp)
    4864:	afb10020 	sw	s1,32(sp)
    4868:	afb0001c 	sw	s0,28(sp)
    486c:	afbf002c 	sw	ra,44(sp)
    4870:	00c09021 	move	s2,a2
    4874:	00e08821 	move	s1,a3
    4878:	309000ff 	andi	s0,a0,0xff
    487c:	30b300ff 	andi	s3,a1,0xff
    4880:	afa00010 	sw	zero,16(sp)
    4884:	0c001b9b 	jal	6e6c <OS_CPU_SR_Save>
    4888:	00000000 	nop
    488c:	afa20010 	sw	v0,16(sp)
    4890:	240200ff 	li	v0,255
    4894:	12020013 	beq	s0,v0,48e4 <OSTaskRegSet+0x8c>
    4898:	3c020001 	lui	v0,0x1
    489c:	24428d20 	addiu	v0,v0,-29408
    48a0:	00108080 	sll	s0,s0,0x2
    48a4:	02028021 	addu	s0,s0,v0
    48a8:	8e020000 	lw	v0,0(s0)
    48ac:	26730014 	addiu	s3,s3,20
    48b0:	00139880 	sll	s3,s3,0x2
    48b4:	00539821 	addu	s3,v0,s3
    48b8:	8fa40010 	lw	a0,16(sp)
    48bc:	0c001ba2 	jal	6e88 <OS_CPU_SR_Restore>
    48c0:	ae720004 	sw	s2,4(s3)
    48c4:	a2200000 	sb	zero,0(s1)
    48c8:	8fbf002c 	lw	ra,44(sp)
    48cc:	8fb30028 	lw	s3,40(sp)
    48d0:	8fb20024 	lw	s2,36(sp)
    48d4:	8fb10020 	lw	s1,32(sp)
    48d8:	8fb0001c 	lw	s0,28(sp)
    48dc:	03e00008 	jr	ra
    48e0:	27bd0030 	addiu	sp,sp,48
    48e4:	8f8274b4 	lw	v0,29876(gp)
    48e8:	26730014 	addiu	s3,s3,20
    48ec:	00139880 	sll	s3,s3,0x2
    48f0:	00539821 	addu	s3,v0,s3
    48f4:	8fa40010 	lw	a0,16(sp)
    48f8:	0c001ba2 	jal	6e88 <OS_CPU_SR_Restore>
    48fc:	ae720004 	sw	s2,4(s3)
    4900:	a2200000 	sb	zero,0(s1)
    4904:	8fbf002c 	lw	ra,44(sp)
    4908:	8fb30028 	lw	s3,40(sp)
    490c:	8fb20024 	lw	s2,36(sp)
    4910:	8fb10020 	lw	s1,32(sp)
    4914:	8fb0001c 	lw	s0,28(sp)
    4918:	03e00008 	jr	ra
    491c:	27bd0030 	addiu	sp,sp,48

00004920 <OS_TaskReturn>:
    4920:	8f8474b4 	lw	a0,29876(gp)
    4924:	27bdffe8 	addiu	sp,sp,-24
    4928:	afbf0014 	sw	ra,20(sp)
    492c:	0c001aaf 	jal	6abc <OSTaskReturnHook>
    4930:	00000000 	nop
    4934:	8fbf0014 	lw	ra,20(sp)
    4938:	240400ff 	li	a0,255
    493c:	08000f77 	j	3ddc <OSTaskDel>
    4940:	27bd0018 	addiu	sp,sp,24

00004944 <OS_TaskStkClr>:
    4944:	30c60003 	andi	a2,a2,0x3
    4948:	24020003 	li	v0,3
    494c:	14c20007 	bne	a2,v0,496c <OS_TaskStkClr+0x28>
    4950:	00000000 	nop
    4954:	10a00005 	beqz	a1,496c <OS_TaskStkClr+0x28>
    4958:	00000000 	nop
    495c:	24840004 	addiu	a0,a0,4
    4960:	24a5ffff 	addiu	a1,a1,-1
    4964:	14a0fffd 	bnez	a1,495c <OS_TaskStkClr+0x18>
    4968:	ac80fffc 	sw	zero,-4(a0)
    496c:	03e00008 	jr	ra
    4970:	00000000 	nop

00004974 <OSTimeDly>:
    4974:	938274b0 	lbu	v0,29872(gp)
    4978:	27bdffd8 	addiu	sp,sp,-40
    497c:	afbf0024 	sw	ra,36(sp)
    4980:	afa00010 	sw	zero,16(sp)
    4984:	14400005 	bnez	v0,499c <OSTimeDly+0x28>
    4988:	93827464 	lbu	v0,29796(gp)
    498c:	14400004 	bnez	v0,49a0 <OSTimeDly+0x2c>
    4990:	8fbf0024 	lw	ra,36(sp)
    4994:	14800004 	bnez	a0,49a8 <OSTimeDly+0x34>
    4998:	00000000 	nop
    499c:	8fbf0024 	lw	ra,36(sp)
    49a0:	03e00008 	jr	ra
    49a4:	27bd0028 	addiu	sp,sp,40
    49a8:	0c001b9b 	jal	6e6c <OS_CPU_SR_Save>
    49ac:	afa40018 	sw	a0,24(sp)
    49b0:	8f8374b4 	lw	v1,29876(gp)
    49b4:	278774a4 	addiu	a3,gp,29860
    49b8:	90660038 	lbu	a2,56(v1)
    49bc:	90650039 	lbu	a1,57(v1)
    49c0:	00e63021 	addu	a2,a3,a2
    49c4:	90c70000 	lbu	a3,0(a2)
    49c8:	00052827 	nor	a1,zero,a1
    49cc:	00a72824 	and	a1,a1,a3
    49d0:	a0c50000 	sb	a1,0(a2)
    49d4:	afa20010 	sw	v0,16(sp)
    49d8:	14a00006 	bnez	a1,49f4 <OSTimeDly+0x80>
    49dc:	8fa40018 	lw	a0,24(sp)
    49e0:	9062003a 	lbu	v0,58(v1)
    49e4:	938574a0 	lbu	a1,29856(gp)
    49e8:	00021027 	nor	v0,zero,v0
    49ec:	00451024 	and	v0,v0,a1
    49f0:	a38274a0 	sb	v0,29856(gp)
    49f4:	8fa20010 	lw	v0,16(sp)
    49f8:	ac640030 	sw	a0,48(v1)
    49fc:	0c001ba2 	jal	6e88 <OS_CPU_SR_Restore>
    4a00:	00402021 	move	a0,v0
    4a04:	0c001883 	jal	620c <OS_Sched>
    4a08:	00000000 	nop
    4a0c:	8fbf0024 	lw	ra,36(sp)
    4a10:	03e00008 	jr	ra
    4a14:	27bd0028 	addiu	sp,sp,40

00004a18 <OSTimeDlyHMSM>:
    4a18:	938274b0 	lbu	v0,29872(gp)
    4a1c:	27bdffe8 	addiu	sp,sp,-24
    4a20:	308400ff 	andi	a0,a0,0xff
    4a24:	30a500ff 	andi	a1,a1,0xff
    4a28:	afbf0014 	sw	ra,20(sp)
    4a2c:	30c600ff 	andi	a2,a2,0xff
    4a30:	10400005 	beqz	v0,4a48 <OSTimeDlyHMSM+0x30>
    4a34:	30e7ffff 	andi	a3,a3,0xffff
    4a38:	24020055 	li	v0,85
    4a3c:	8fbf0014 	lw	ra,20(sp)
    4a40:	03e00008 	jr	ra
    4a44:	27bd0018 	addiu	sp,sp,24
    4a48:	93827464 	lbu	v0,29796(gp)
    4a4c:	10400004 	beqz	v0,4a60 <OSTimeDlyHMSM+0x48>
    4a50:	8fbf0014 	lw	ra,20(sp)
    4a54:	24020032 	li	v0,50
    4a58:	03e00008 	jr	ra
    4a5c:	27bd0018 	addiu	sp,sp,24
    4a60:	00041100 	sll	v0,a0,0x4
    4a64:	00042200 	sll	a0,a0,0x8
    4a68:	00822023 	subu	a0,a0,v0
    4a6c:	00071880 	sll	v1,a3,0x2
    4a70:	00051080 	sll	v0,a1,0x2
    4a74:	00073900 	sll	a3,a3,0x4
    4a78:	00052980 	sll	a1,a1,0x6
    4a7c:	00673821 	addu	a3,v1,a3
    4a80:	00a22823 	subu	a1,a1,v0
    4a84:	00041100 	sll	v0,a0,0x4
    4a88:	00442023 	subu	a0,v0,a0
    4a8c:	00071080 	sll	v0,a3,0x2
    4a90:	00e23821 	addu	a3,a3,v0
    4a94:	3c031062 	lui	v1,0x1062
    4a98:	00a63021 	addu	a2,a1,a2
    4a9c:	24e701f4 	addiu	a3,a3,500
    4aa0:	24634dd3 	addiu	v1,v1,19923
    4aa4:	00c43021 	addu	a2,a2,a0
    4aa8:	00e30019 	multu	a3,v1
    4aac:	00061080 	sll	v0,a2,0x2
    4ab0:	00063100 	sll	a2,a2,0x4
    4ab4:	00461021 	addu	v0,v0,a2
    4ab8:	00001810 	mfhi	v1
    4abc:	00022080 	sll	a0,v0,0x2
    4ac0:	00441021 	addu	v0,v0,a0
    4ac4:	00032182 	srl	a0,v1,0x6
    4ac8:	0c00125d 	jal	4974 <OSTimeDly>
    4acc:	00442021 	addu	a0,v0,a0
    4ad0:	0800128f 	j	4a3c <OSTimeDlyHMSM+0x24>
    4ad4:	00001021 	move	v0,zero

00004ad8 <OSTimeDlyResume>:
    4ad8:	27bdffe0 	addiu	sp,sp,-32
    4adc:	afb00018 	sw	s0,24(sp)
    4ae0:	309000ff 	andi	s0,a0,0xff
    4ae4:	2e02003f 	sltiu	v0,s0,63
    4ae8:	afbf001c 	sw	ra,28(sp)
    4aec:	afa00010 	sw	zero,16(sp)
    4af0:	14400005 	bnez	v0,4b08 <OSTimeDlyResume+0x30>
    4af4:	2402002a 	li	v0,42
    4af8:	8fbf001c 	lw	ra,28(sp)
    4afc:	8fb00018 	lw	s0,24(sp)
    4b00:	03e00008 	jr	ra
    4b04:	27bd0020 	addiu	sp,sp,32
    4b08:	0c001b9b 	jal	6e6c <OS_CPU_SR_Save>
    4b0c:	00108080 	sll	s0,s0,0x2
    4b10:	3c030001 	lui	v1,0x1
    4b14:	24638d20 	addiu	v1,v1,-29408
    4b18:	02038021 	addu	s0,s0,v1
    4b1c:	8e030000 	lw	v1,0(s0)
    4b20:	afa20010 	sw	v0,16(sp)
    4b24:	1060001d 	beqz	v1,4b9c <OSTimeDlyResume+0xc4>
    4b28:	00000000 	nop
    4b2c:	24020001 	li	v0,1
    4b30:	1062001a 	beq	v1,v0,4b9c <OSTimeDlyResume+0xc4>
    4b34:	00000000 	nop
    4b38:	8c640030 	lw	a0,48(v1)
    4b3c:	1080000e 	beqz	a0,4b78 <OSTimeDlyResume+0xa0>
    4b40:	00000000 	nop
    4b44:	90640034 	lbu	a0,52(v1)
    4b48:	30850037 	andi	a1,a0,0x37
    4b4c:	14a0000f 	bnez	a1,4b8c <OSTimeDlyResume+0xb4>
    4b50:	ac600030 	sw	zero,48(v1)
    4b54:	a0600035 	sb	zero,53(v1)
    4b58:	30840008 	andi	a0,a0,0x8
    4b5c:	10800014 	beqz	a0,4bb0 <OSTimeDlyResume+0xd8>
    4b60:	278474a4 	addiu	a0,gp,29860
    4b64:	8fa40010 	lw	a0,16(sp)
    4b68:	0c001ba2 	jal	6e88 <OS_CPU_SR_Restore>
    4b6c:	00000000 	nop
    4b70:	080012be 	j	4af8 <OSTimeDlyResume+0x20>
    4b74:	00001021 	move	v0,zero
    4b78:	8fa40010 	lw	a0,16(sp)
    4b7c:	0c001ba2 	jal	6e88 <OS_CPU_SR_Restore>
    4b80:	00000000 	nop
    4b84:	080012be 	j	4af8 <OSTimeDlyResume+0x20>
    4b88:	24020050 	li	v0,80
    4b8c:	308400c8 	andi	a0,a0,0xc8
    4b90:	a0640034 	sb	a0,52(v1)
    4b94:	080012d6 	j	4b58 <OSTimeDlyResume+0x80>
    4b98:	a0620035 	sb	v0,53(v1)
    4b9c:	8fa40010 	lw	a0,16(sp)
    4ba0:	0c001ba2 	jal	6e88 <OS_CPU_SR_Restore>
    4ba4:	00000000 	nop
    4ba8:	080012be 	j	4af8 <OSTimeDlyResume+0x20>
    4bac:	24020043 	li	v0,67
    4bb0:	90620038 	lbu	v0,56(v1)
    4bb4:	00821021 	addu	v0,a0,v0
    4bb8:	90460000 	lbu	a2,0(v0)
    4bbc:	938774a0 	lbu	a3,29856(gp)
    4bc0:	9065003a 	lbu	a1,58(v1)
    4bc4:	90630039 	lbu	v1,57(v1)
    4bc8:	8fa40010 	lw	a0,16(sp)
    4bcc:	00e52825 	or	a1,a3,a1
    4bd0:	00c31825 	or	v1,a2,v1
    4bd4:	a0430000 	sb	v1,0(v0)
    4bd8:	0c001ba2 	jal	6e88 <OS_CPU_SR_Restore>
    4bdc:	a38574a0 	sb	a1,29856(gp)
    4be0:	0c001883 	jal	620c <OS_Sched>
    4be4:	00000000 	nop
    4be8:	080012be 	j	4af8 <OSTimeDlyResume+0x20>
    4bec:	00001021 	move	v0,zero

00004bf0 <OSTimeGet>:
    4bf0:	27bdffe0 	addiu	sp,sp,-32
    4bf4:	afbf001c 	sw	ra,28(sp)
    4bf8:	afb00018 	sw	s0,24(sp)
    4bfc:	afa00010 	sw	zero,16(sp)
    4c00:	0c001b9b 	jal	6e6c <OS_CPU_SR_Save>
    4c04:	00000000 	nop
    4c08:	afa20010 	sw	v0,16(sp)
    4c0c:	8f9074bc 	lw	s0,29884(gp)
    4c10:	8fa40010 	lw	a0,16(sp)
    4c14:	0c001ba2 	jal	6e88 <OS_CPU_SR_Restore>
    4c18:	00000000 	nop
    4c1c:	8fbf001c 	lw	ra,28(sp)
    4c20:	02001021 	move	v0,s0
    4c24:	8fb00018 	lw	s0,24(sp)
    4c28:	03e00008 	jr	ra
    4c2c:	27bd0020 	addiu	sp,sp,32

00004c30 <OSTimeSet>:
    4c30:	27bdffe0 	addiu	sp,sp,-32
    4c34:	afbf001c 	sw	ra,28(sp)
    4c38:	afb00018 	sw	s0,24(sp)
    4c3c:	afa00010 	sw	zero,16(sp)
    4c40:	0c001b9b 	jal	6e6c <OS_CPU_SR_Save>
    4c44:	00808021 	move	s0,a0
    4c48:	afa20010 	sw	v0,16(sp)
    4c4c:	af9074bc 	sw	s0,29884(gp)
    4c50:	8fa40010 	lw	a0,16(sp)
    4c54:	0c001ba2 	jal	6e88 <OS_CPU_SR_Restore>
    4c58:	00000000 	nop
    4c5c:	8fbf001c 	lw	ra,28(sp)
    4c60:	8fb00018 	lw	s0,24(sp)
    4c64:	03e00008 	jr	ra
    4c68:	27bd0020 	addiu	sp,sp,32

00004c6c <OSTmr_Link>:
    4c6c:	24020003 	li	v0,3
    4c70:	a0820025 	sb	v0,37(a0)
    4c74:	24020001 	li	v0,1
    4c78:	10a20004 	beq	a1,v0,4c8c <OSTmr_Link+0x20>
    4c7c:	00000000 	nop
    4c80:	8c820018 	lw	v0,24(a0)
    4c84:	14400015 	bnez	v0,4cdc <OSTmr_Link+0x70>
    4c88:	8f8374b8 	lw	v1,29880(gp)
    4c8c:	8c82001c 	lw	v0,28(a0)
    4c90:	8f8374b8 	lw	v1,29880(gp)
    4c94:	00621821 	addu	v1,v1,v0
    4c98:	ac830014 	sw	v1,20(a0)
    4c9c:	3c020000 	lui	v0,0x0
    4ca0:	30630007 	andi	v1,v1,0x7
    4ca4:	000318c0 	sll	v1,v1,0x3
    4ca8:	24427ab8 	addiu	v0,v0,31416
    4cac:	00431021 	addu	v0,v0,v1
    4cb0:	8c430000 	lw	v1,0(v0)
    4cb4:	10600013 	beqz	v1,4d04 <OSTmr_Link+0x98>
    4cb8:	00000000 	nop
    4cbc:	94450004 	lhu	a1,4(v0)
    4cc0:	ac440000 	sw	a0,0(v0)
    4cc4:	24a50001 	addiu	a1,a1,1
    4cc8:	ac83000c 	sw	v1,12(a0)
    4ccc:	ac640010 	sw	a0,16(v1)
    4cd0:	a4450004 	sh	a1,4(v0)
    4cd4:	03e00008 	jr	ra
    4cd8:	ac800010 	sw	zero,16(a0)
    4cdc:	00431821 	addu	v1,v0,v1
    4ce0:	ac830014 	sw	v1,20(a0)
    4ce4:	3c020000 	lui	v0,0x0
    4ce8:	30630007 	andi	v1,v1,0x7
    4cec:	000318c0 	sll	v1,v1,0x3
    4cf0:	24427ab8 	addiu	v0,v0,31416
    4cf4:	00431021 	addu	v0,v0,v1
    4cf8:	8c430000 	lw	v1,0(v0)
    4cfc:	1460ffef 	bnez	v1,4cbc <OSTmr_Link+0x50>
    4d00:	00000000 	nop
    4d04:	24030001 	li	v1,1
    4d08:	ac440000 	sw	a0,0(v0)
    4d0c:	ac80000c 	sw	zero,12(a0)
    4d10:	a4430004 	sh	v1,4(v0)
    4d14:	03e00008 	jr	ra
    4d18:	ac800010 	sw	zero,16(a0)

00004d1c <OSTmr_Unlink>:
    4d1c:	8c830014 	lw	v1,20(a0)
    4d20:	3c020000 	lui	v0,0x0
    4d24:	30630007 	andi	v1,v1,0x7
    4d28:	000318c0 	sll	v1,v1,0x3
    4d2c:	24427ab8 	addiu	v0,v0,31416
    4d30:	00431021 	addu	v0,v0,v1
    4d34:	8c430000 	lw	v1,0(v0)
    4d38:	1064000e 	beq	v1,a0,4d74 <OSTmr_Unlink+0x58>
    4d3c:	00000000 	nop
    4d40:	8c850010 	lw	a1,16(a0)
    4d44:	8c83000c 	lw	v1,12(a0)
    4d48:	10600002 	beqz	v1,4d54 <OSTmr_Unlink+0x38>
    4d4c:	aca3000c 	sw	v1,12(a1)
    4d50:	ac650010 	sw	a1,16(v1)
    4d54:	24030001 	li	v1,1
    4d58:	a0830025 	sb	v1,37(a0)
    4d5c:	94430004 	lhu	v1,4(v0)
    4d60:	ac80000c 	sw	zero,12(a0)
    4d64:	2463ffff 	addiu	v1,v1,-1
    4d68:	ac800010 	sw	zero,16(a0)
    4d6c:	03e00008 	jr	ra
    4d70:	a4430004 	sh	v1,4(v0)
    4d74:	8c83000c 	lw	v1,12(a0)
    4d78:	1060fff6 	beqz	v1,4d54 <OSTmr_Unlink+0x38>
    4d7c:	ac430000 	sw	v1,0(v0)
    4d80:	ac600010 	sw	zero,16(v1)
    4d84:	24030001 	li	v1,1
    4d88:	a0830025 	sb	v1,37(a0)
    4d8c:	94430004 	lhu	v1,4(v0)
    4d90:	ac80000c 	sw	zero,12(a0)
    4d94:	2463ffff 	addiu	v1,v1,-1
    4d98:	ac800010 	sw	zero,16(a0)
    4d9c:	03e00008 	jr	ra
    4da0:	a4430004 	sh	v1,4(v0)

00004da4 <OSTmr_Task>:
    4da4:	27bdffd8 	addiu	sp,sp,-40
    4da8:	afb20020 	sw	s2,32(sp)
    4dac:	3c120000 	lui	s2,0x0
    4db0:	afb1001c 	sw	s1,28(sp)
    4db4:	afbf0024 	sw	ra,36(sp)
    4db8:	afb00018 	sw	s0,24(sp)
    4dbc:	26527ab8 	addiu	s2,s2,31416
    4dc0:	24110002 	li	s1,2
    4dc4:	8f847468 	lw	a0,29800(gp)
    4dc8:	27a60010 	addiu	a2,sp,16
    4dcc:	0c000d1a 	jal	3468 <OSSemPend>
    4dd0:	00002821 	move	a1,zero
    4dd4:	0c001716 	jal	5c58 <OSSchedLock>
    4dd8:	00000000 	nop
    4ddc:	8f8274b8 	lw	v0,29880(gp)
    4de0:	24420001 	addiu	v0,v0,1
    4de4:	30430007 	andi	v1,v0,0x7
    4de8:	000318c0 	sll	v1,v1,0x3
    4dec:	02431821 	addu	v1,s2,v1
    4df0:	8c660000 	lw	a2,0(v1)
    4df4:	10c00017 	beqz	a2,4e54 <OSTmr_Task+0xb0>
    4df8:	af8274b8 	sw	v0,29880(gp)
    4dfc:	8cc30014 	lw	v1,20(a2)
    4e00:	10430007 	beq	v0,v1,4e20 <OSTmr_Task+0x7c>
    4e04:	8cd0000c 	lw	s0,12(a2)
    4e08:	12000012 	beqz	s0,4e54 <OSTmr_Task+0xb0>
    4e0c:	02003021 	move	a2,s0
    4e10:	8f8274b8 	lw	v0,29880(gp)
    4e14:	8cc30014 	lw	v1,20(a2)
    4e18:	1443fffb 	bne	v0,v1,4e08 <OSTmr_Task+0x64>
    4e1c:	8cd0000c 	lw	s0,12(a2)
    4e20:	0c001347 	jal	4d1c <OSTmr_Unlink>
    4e24:	00c02021 	move	a0,a2
    4e28:	90c20024 	lbu	v0,36(a2)
    4e2c:	1051000d 	beq	v0,s1,4e64 <OSTmr_Task+0xc0>
    4e30:	00000000 	nop
    4e34:	a0d10025 	sb	s1,37(a2)
    4e38:	8cc20004 	lw	v0,4(a2)
    4e3c:	1040fff2 	beqz	v0,4e08 <OSTmr_Task+0x64>
    4e40:	00c02021 	move	a0,a2
    4e44:	0040f809 	jalr	v0
    4e48:	8cc50008 	lw	a1,8(a2)
    4e4c:	1600fff0 	bnez	s0,4e10 <OSTmr_Task+0x6c>
    4e50:	02003021 	move	a2,s0
    4e54:	0c0019b2 	jal	66c8 <OSSchedUnlock>
    4e58:	00000000 	nop
    4e5c:	08001372 	j	4dc8 <OSTmr_Task+0x24>
    4e60:	8f847468 	lw	a0,29800(gp)
    4e64:	00c02021 	move	a0,a2
    4e68:	0c00131b 	jal	4c6c <OSTmr_Link>
    4e6c:	24050001 	li	a1,1
    4e70:	0800138f 	j	4e3c <OSTmr_Task+0x98>
    4e74:	8cc20004 	lw	v0,4(a2)

00004e78 <OSTmrCreate>:
    4e78:	938274b0 	lbu	v0,29872(gp)
    4e7c:	27bdffd8 	addiu	sp,sp,-40
    4e80:	afb40020 	sw	s4,32(sp)
    4e84:	afbf0024 	sw	ra,36(sp)
    4e88:	afb3001c 	sw	s3,28(sp)
    4e8c:	afb20018 	sw	s2,24(sp)
    4e90:	afb10014 	sw	s1,20(sp)
    4e94:	afb00010 	sw	s0,16(sp)
    4e98:	14400027 	bnez	v0,4f38 <OSTmrCreate+0xc0>
    4e9c:	30d400ff 	andi	s4,a2,0xff
    4ea0:	00808821 	move	s1,a0
    4ea4:	00a09021 	move	s2,a1
    4ea8:	0c001716 	jal	5c58 <OSSchedLock>
    4eac:	00e09821 	move	s3,a3
    4eb0:	8f907460 	lw	s0,29792(gp)
    4eb4:	1200002c 	beqz	s0,4f68 <OSTmrCreate+0xf0>
    4eb8:	24050001 	li	a1,1
    4ebc:	a2050025 	sb	a1,37(s0)
    4ec0:	8fa50038 	lw	a1,56(sp)
    4ec4:	97837474 	lhu	v1,29812(gp)
    4ec8:	97827484 	lhu	v0,29828(gp)
    4ecc:	ae050008 	sw	a1,8(s0)
    4ed0:	8fa5003c 	lw	a1,60(sp)
    4ed4:	8e04000c 	lw	a0,12(s0)
    4ed8:	2442ffff 	addiu	v0,v0,-1
    4edc:	ae110018 	sw	s1,24(s0)
    4ee0:	ae12001c 	sw	s2,28(s0)
    4ee4:	a2140024 	sb	s4,36(s0)
    4ee8:	ae130004 	sw	s3,4(s0)
    4eec:	24630001 	addiu	v1,v1,1
    4ef0:	ae00000c 	sw	zero,12(s0)
    4ef4:	ae000010 	sw	zero,16(s0)
    4ef8:	ae050020 	sw	a1,32(s0)
    4efc:	a7827484 	sh	v0,29828(gp)
    4f00:	af847460 	sw	a0,29792(gp)
    4f04:	0c0019b2 	jal	66c8 <OSSchedUnlock>
    4f08:	a7837474 	sh	v1,29812(gp)
    4f0c:	8fa20040 	lw	v0,64(sp)
    4f10:	a0400000 	sb	zero,0(v0)
    4f14:	8fbf0024 	lw	ra,36(sp)
    4f18:	02001021 	move	v0,s0
    4f1c:	8fb40020 	lw	s4,32(sp)
    4f20:	8fb3001c 	lw	s3,28(sp)
    4f24:	8fb20018 	lw	s2,24(sp)
    4f28:	8fb10014 	lw	s1,20(sp)
    4f2c:	8fb00010 	lw	s0,16(sp)
    4f30:	03e00008 	jr	ra
    4f34:	27bd0028 	addiu	sp,sp,40
    4f38:	8fa30040 	lw	v1,64(sp)
    4f3c:	2402ff8b 	li	v0,-117
    4f40:	a0620000 	sb	v0,0(v1)
    4f44:	8fbf0024 	lw	ra,36(sp)
    4f48:	8fb40020 	lw	s4,32(sp)
    4f4c:	8fb3001c 	lw	s3,28(sp)
    4f50:	8fb20018 	lw	s2,24(sp)
    4f54:	8fb10014 	lw	s1,20(sp)
    4f58:	8fb00010 	lw	s0,16(sp)
    4f5c:	00001021 	move	v0,zero
    4f60:	03e00008 	jr	ra
    4f64:	27bd0028 	addiu	sp,sp,40
    4f68:	0c0019b2 	jal	66c8 <OSSchedUnlock>
    4f6c:	00000000 	nop
    4f70:	8fa30040 	lw	v1,64(sp)
    4f74:	2402ff86 	li	v0,-122
    4f78:	a0620000 	sb	v0,0(v1)
    4f7c:	8fbf0024 	lw	ra,36(sp)
    4f80:	8fb40020 	lw	s4,32(sp)
    4f84:	8fb3001c 	lw	s3,28(sp)
    4f88:	8fb20018 	lw	s2,24(sp)
    4f8c:	8fb10014 	lw	s1,20(sp)
    4f90:	8fb00010 	lw	s0,16(sp)
    4f94:	00001021 	move	v0,zero
    4f98:	03e00008 	jr	ra
    4f9c:	27bd0028 	addiu	sp,sp,40

00004fa0 <OSTmrDel>:
    4fa0:	27bdffe0 	addiu	sp,sp,-32
    4fa4:	afb00018 	sw	s0,24(sp)
    4fa8:	afbf001c 	sw	ra,28(sp)
    4fac:	90820000 	lbu	v0,0(a0)
    4fb0:	24030064 	li	v1,100
    4fb4:	10430008 	beq	v0,v1,4fd8 <OSTmrDel+0x38>
    4fb8:	00808021 	move	s0,a0
    4fbc:	2402ff89 	li	v0,-119
    4fc0:	a0a20000 	sb	v0,0(a1)
    4fc4:	00001021 	move	v0,zero
    4fc8:	8fbf001c 	lw	ra,28(sp)
    4fcc:	8fb00018 	lw	s0,24(sp)
    4fd0:	03e00008 	jr	ra
    4fd4:	27bd0020 	addiu	sp,sp,32
    4fd8:	938274b0 	lbu	v0,29872(gp)
    4fdc:	10400007 	beqz	v0,4ffc <OSTmrDel+0x5c>
    4fe0:	2402ff8b 	li	v0,-117
    4fe4:	a0a20000 	sb	v0,0(a1)
    4fe8:	8fbf001c 	lw	ra,28(sp)
    4fec:	8fb00018 	lw	s0,24(sp)
    4ff0:	00001021 	move	v0,zero
    4ff4:	03e00008 	jr	ra
    4ff8:	27bd0020 	addiu	sp,sp,32
    4ffc:	0c001716 	jal	5c58 <OSSchedLock>
    5000:	afa50010 	sw	a1,16(sp)
    5004:	92020025 	lbu	v0,37(s0)
    5008:	2c430003 	sltiu	v1,v0,3
    500c:	1060000a 	beqz	v1,5038 <OSTmrDel+0x98>
    5010:	8fa50010 	lw	a1,16(sp)
    5014:	1440002d 	bnez	v0,50cc <OSTmrDel+0x12c>
    5018:	97837474 	lhu	v1,29812(gp)
    501c:	0c0019b2 	jal	66c8 <OSSchedUnlock>
    5020:	afa50010 	sw	a1,16(sp)
    5024:	8fa50010 	lw	a1,16(sp)
    5028:	2402ff87 	li	v0,-121
    502c:	a0a20000 	sb	v0,0(a1)
    5030:	080013f2 	j	4fc8 <OSTmrDel+0x28>
    5034:	00001021 	move	v0,zero
    5038:	24030003 	li	v1,3
    503c:	1443001c 	bne	v0,v1,50b0 <OSTmrDel+0x110>
    5040:	00000000 	nop
    5044:	02002021 	move	a0,s0
    5048:	0c001347 	jal	4d1c <OSTmr_Unlink>
    504c:	afa50010 	sw	a1,16(sp)
    5050:	3c040000 	lui	a0,0x0
    5054:	24847404 	addiu	a0,a0,29700
    5058:	97837474 	lhu	v1,29812(gp)
    505c:	97827484 	lhu	v0,29828(gp)
    5060:	ae040020 	sw	a0,32(s0)
    5064:	8f847460 	lw	a0,29792(gp)
    5068:	24420001 	addiu	v0,v0,1
    506c:	2463ffff 	addiu	v1,v1,-1
    5070:	a2000025 	sb	zero,37(s0)
    5074:	a2000024 	sb	zero,36(s0)
    5078:	ae00001c 	sw	zero,28(s0)
    507c:	ae000014 	sw	zero,20(s0)
    5080:	ae000004 	sw	zero,4(s0)
    5084:	ae000008 	sw	zero,8(s0)
    5088:	ae000010 	sw	zero,16(s0)
    508c:	ae04000c 	sw	a0,12(s0)
    5090:	a7827484 	sh	v0,29828(gp)
    5094:	af907460 	sw	s0,29792(gp)
    5098:	0c0019b2 	jal	66c8 <OSSchedUnlock>
    509c:	a7837474 	sh	v1,29812(gp)
    50a0:	8fa50010 	lw	a1,16(sp)
    50a4:	24020001 	li	v0,1
    50a8:	080013f2 	j	4fc8 <OSTmrDel+0x28>
    50ac:	a0a00000 	sb	zero,0(a1)
    50b0:	0c0019b2 	jal	66c8 <OSSchedUnlock>
    50b4:	afa50010 	sw	a1,16(sp)
    50b8:	8fa50010 	lw	a1,16(sp)
    50bc:	2402ff8d 	li	v0,-115
    50c0:	a0a20000 	sb	v0,0(a1)
    50c4:	080013f2 	j	4fc8 <OSTmrDel+0x28>
    50c8:	00001021 	move	v0,zero
    50cc:	3c040000 	lui	a0,0x0
    50d0:	24847404 	addiu	a0,a0,29700
    50d4:	97827484 	lhu	v0,29828(gp)
    50d8:	ae040020 	sw	a0,32(s0)
    50dc:	8f847460 	lw	a0,29792(gp)
    50e0:	24420001 	addiu	v0,v0,1
    50e4:	2463ffff 	addiu	v1,v1,-1
    50e8:	a2000025 	sb	zero,37(s0)
    50ec:	a2000024 	sb	zero,36(s0)
    50f0:	ae00001c 	sw	zero,28(s0)
    50f4:	ae000014 	sw	zero,20(s0)
    50f8:	ae000004 	sw	zero,4(s0)
    50fc:	ae000008 	sw	zero,8(s0)
    5100:	ae000010 	sw	zero,16(s0)
    5104:	ae04000c 	sw	a0,12(s0)
    5108:	a7827484 	sh	v0,29828(gp)
    510c:	afa50010 	sw	a1,16(sp)
    5110:	af907460 	sw	s0,29792(gp)
    5114:	0c0019b2 	jal	66c8 <OSSchedUnlock>
    5118:	a7837474 	sh	v1,29812(gp)
    511c:	8fa50010 	lw	a1,16(sp)
    5120:	24020001 	li	v0,1
    5124:	080013f2 	j	4fc8 <OSTmrDel+0x28>
    5128:	a0a00000 	sb	zero,0(a1)

0000512c <OSTmrNameGet>:
    512c:	90820000 	lbu	v0,0(a0)
    5130:	24030064 	li	v1,100
    5134:	10430004 	beq	v0,v1,5148 <OSTmrNameGet+0x1c>
    5138:	2402ff89 	li	v0,-119
    513c:	a0c20000 	sb	v0,0(a2)
    5140:	03e00008 	jr	ra
    5144:	00001021 	move	v0,zero
    5148:	938274b0 	lbu	v0,29872(gp)
    514c:	27bdffd8 	addiu	sp,sp,-40
    5150:	afbf0024 	sw	ra,36(sp)
    5154:	10400008 	beqz	v0,5178 <OSTmrNameGet+0x4c>
    5158:	afb00020 	sw	s0,32(sp)
    515c:	24020011 	li	v0,17
    5160:	a0c20000 	sb	v0,0(a2)
    5164:	00001021 	move	v0,zero
    5168:	8fbf0024 	lw	ra,36(sp)
    516c:	8fb00020 	lw	s0,32(sp)
    5170:	03e00008 	jr	ra
    5174:	27bd0028 	addiu	sp,sp,40
    5178:	afa40010 	sw	a0,16(sp)
    517c:	afa50014 	sw	a1,20(sp)
    5180:	0c001716 	jal	5c58 <OSSchedLock>
    5184:	afa60018 	sw	a2,24(sp)
    5188:	8fa40010 	lw	a0,16(sp)
    518c:	8fa50014 	lw	a1,20(sp)
    5190:	90820025 	lbu	v0,37(a0)
    5194:	10400016 	beqz	v0,51f0 <OSTmrNameGet+0xc4>
    5198:	8fa60018 	lw	a2,24(sp)
    519c:	2c420004 	sltiu	v0,v0,4
    51a0:	14400008 	bnez	v0,51c4 <OSTmrNameGet+0x98>
    51a4:	00000000 	nop
    51a8:	0c0019b2 	jal	66c8 <OSSchedUnlock>
    51ac:	afa60018 	sw	a2,24(sp)
    51b0:	8fa60018 	lw	a2,24(sp)
    51b4:	2402ff8d 	li	v0,-115
    51b8:	a0c20000 	sb	v0,0(a2)
    51bc:	0800145a 	j	5168 <OSTmrNameGet+0x3c>
    51c0:	00001021 	move	v0,zero
    51c4:	8c820020 	lw	v0,32(a0)
    51c8:	aca20000 	sw	v0,0(a1)
    51cc:	00402021 	move	a0,v0
    51d0:	0c0019d4 	jal	6750 <OS_StrLen>
    51d4:	afa60018 	sw	a2,24(sp)
    51d8:	0c0019b2 	jal	66c8 <OSSchedUnlock>
    51dc:	00408021 	move	s0,v0
    51e0:	8fa60018 	lw	a2,24(sp)
    51e4:	02001021 	move	v0,s0
    51e8:	0800145a 	j	5168 <OSTmrNameGet+0x3c>
    51ec:	a0c00000 	sb	zero,0(a2)
    51f0:	0c0019b2 	jal	66c8 <OSSchedUnlock>
    51f4:	afa60018 	sw	a2,24(sp)
    51f8:	8fa60018 	lw	a2,24(sp)
    51fc:	2402ff87 	li	v0,-121
    5200:	a0c20000 	sb	v0,0(a2)
    5204:	0800145a 	j	5168 <OSTmrNameGet+0x3c>
    5208:	00001021 	move	v0,zero

0000520c <OSTmrRemainGet>:
    520c:	90820000 	lbu	v0,0(a0)
    5210:	24030064 	li	v1,100
    5214:	10430004 	beq	v0,v1,5228 <OSTmrRemainGet+0x1c>
    5218:	2402ff89 	li	v0,-119
    521c:	a0a20000 	sb	v0,0(a1)
    5220:	03e00008 	jr	ra
    5224:	00001021 	move	v0,zero
    5228:	938274b0 	lbu	v0,29872(gp)
    522c:	27bdffe0 	addiu	sp,sp,-32
    5230:	afbf001c 	sw	ra,28(sp)
    5234:	10400008 	beqz	v0,5258 <OSTmrRemainGet+0x4c>
    5238:	afb00018 	sw	s0,24(sp)
    523c:	2402ff8b 	li	v0,-117
    5240:	a0a20000 	sb	v0,0(a1)
    5244:	00001021 	move	v0,zero
    5248:	8fbf001c 	lw	ra,28(sp)
    524c:	8fb00018 	lw	s0,24(sp)
    5250:	03e00008 	jr	ra
    5254:	27bd0020 	addiu	sp,sp,32
    5258:	afa40010 	sw	a0,16(sp)
    525c:	0c001716 	jal	5c58 <OSSchedLock>
    5260:	afa50014 	sw	a1,20(sp)
    5264:	8fa40010 	lw	a0,16(sp)
    5268:	24030001 	li	v1,1
    526c:	90820025 	lbu	v0,37(a0)
    5270:	10430023 	beq	v0,v1,5300 <OSTmrRemainGet+0xf4>
    5274:	8fa50014 	lw	a1,20(sp)
    5278:	1040001a 	beqz	v0,52e4 <OSTmrRemainGet+0xd8>
    527c:	24030002 	li	v1,2
    5280:	10430012 	beq	v0,v1,52cc <OSTmrRemainGet+0xc0>
    5284:	24030003 	li	v1,3
    5288:	14430009 	bne	v0,v1,52b0 <OSTmrRemainGet+0xa4>
    528c:	00000000 	nop
    5290:	8f8274b8 	lw	v0,29880(gp)
    5294:	8c900014 	lw	s0,20(a0)
    5298:	0c0019b2 	jal	66c8 <OSSchedUnlock>
    529c:	02028023 	subu	s0,s0,v0
    52a0:	8fa50014 	lw	a1,20(sp)
    52a4:	02001021 	move	v0,s0
    52a8:	08001492 	j	5248 <OSTmrRemainGet+0x3c>
    52ac:	a0a00000 	sb	zero,0(a1)
    52b0:	0c0019b2 	jal	66c8 <OSSchedUnlock>
    52b4:	afa50014 	sw	a1,20(sp)
    52b8:	8fa50014 	lw	a1,20(sp)
    52bc:	2402ff8d 	li	v0,-115
    52c0:	a0a20000 	sb	v0,0(a1)
    52c4:	08001492 	j	5248 <OSTmrRemainGet+0x3c>
    52c8:	00001021 	move	v0,zero
    52cc:	0c0019b2 	jal	66c8 <OSSchedUnlock>
    52d0:	afa50014 	sw	a1,20(sp)
    52d4:	8fa50014 	lw	a1,20(sp)
    52d8:	00001021 	move	v0,zero
    52dc:	08001492 	j	5248 <OSTmrRemainGet+0x3c>
    52e0:	a0a00000 	sb	zero,0(a1)
    52e4:	0c0019b2 	jal	66c8 <OSSchedUnlock>
    52e8:	afa50014 	sw	a1,20(sp)
    52ec:	8fa50014 	lw	a1,20(sp)
    52f0:	2402ff87 	li	v0,-121
    52f4:	a0a20000 	sb	v0,0(a1)
    52f8:	08001492 	j	5248 <OSTmrRemainGet+0x3c>
    52fc:	00001021 	move	v0,zero
    5300:	90830024 	lbu	v1,36(a0)
    5304:	24020002 	li	v0,2
    5308:	14620004 	bne	v1,v0,531c <OSTmrRemainGet+0x110>
    530c:	8c900018 	lw	s0,24(a0)
    5310:	16000002 	bnez	s0,531c <OSTmrRemainGet+0x110>
    5314:	00000000 	nop
    5318:	8c90001c 	lw	s0,28(a0)
    531c:	0c0019b2 	jal	66c8 <OSSchedUnlock>
    5320:	afa50014 	sw	a1,20(sp)
    5324:	8fa50014 	lw	a1,20(sp)
    5328:	02001021 	move	v0,s0
    532c:	08001492 	j	5248 <OSTmrRemainGet+0x3c>
    5330:	a0a00000 	sb	zero,0(a1)

00005334 <OSTmrStateGet>:
    5334:	90820000 	lbu	v0,0(a0)
    5338:	24030064 	li	v1,100
    533c:	10430004 	beq	v0,v1,5350 <OSTmrStateGet+0x1c>
    5340:	2402ff89 	li	v0,-119
    5344:	a0a20000 	sb	v0,0(a1)
    5348:	03e00008 	jr	ra
    534c:	00001021 	move	v0,zero
    5350:	938274b0 	lbu	v0,29872(gp)
    5354:	27bdffe0 	addiu	sp,sp,-32
    5358:	afbf001c 	sw	ra,28(sp)
    535c:	10400008 	beqz	v0,5380 <OSTmrStateGet+0x4c>
    5360:	afb00018 	sw	s0,24(sp)
    5364:	2402ff8b 	li	v0,-117
    5368:	a0a20000 	sb	v0,0(a1)
    536c:	8fbf001c 	lw	ra,28(sp)
    5370:	8fb00018 	lw	s0,24(sp)
    5374:	00001021 	move	v0,zero
    5378:	03e00008 	jr	ra
    537c:	27bd0020 	addiu	sp,sp,32
    5380:	afa40010 	sw	a0,16(sp)
    5384:	0c001716 	jal	5c58 <OSSchedLock>
    5388:	afa50014 	sw	a1,20(sp)
    538c:	8fa40010 	lw	a0,16(sp)
    5390:	90900025 	lbu	s0,37(a0)
    5394:	2e020004 	sltiu	v0,s0,4
    5398:	10400009 	beqz	v0,53c0 <OSTmrStateGet+0x8c>
    539c:	8fa50014 	lw	a1,20(sp)
    53a0:	a0a00000 	sb	zero,0(a1)
    53a4:	0c0019b2 	jal	66c8 <OSSchedUnlock>
    53a8:	00000000 	nop
    53ac:	8fbf001c 	lw	ra,28(sp)
    53b0:	02001021 	move	v0,s0
    53b4:	8fb00018 	lw	s0,24(sp)
    53b8:	03e00008 	jr	ra
    53bc:	27bd0020 	addiu	sp,sp,32
    53c0:	2402ff8d 	li	v0,-115
    53c4:	080014e9 	j	53a4 <OSTmrStateGet+0x70>
    53c8:	a0a20000 	sb	v0,0(a1)

000053cc <OSTmrStart>:
    53cc:	27bdffe0 	addiu	sp,sp,-32
    53d0:	afb10018 	sw	s1,24(sp)
    53d4:	afb00014 	sw	s0,20(sp)
    53d8:	afbf001c 	sw	ra,28(sp)
    53dc:	90820000 	lbu	v0,0(a0)
    53e0:	24030064 	li	v1,100
    53e4:	00808021 	move	s0,a0
    53e8:	10430009 	beq	v0,v1,5410 <OSTmrStart+0x44>
    53ec:	00a08821 	move	s1,a1
    53f0:	2402ff89 	li	v0,-119
    53f4:	a0a20000 	sb	v0,0(a1)
    53f8:	00001021 	move	v0,zero
    53fc:	8fbf001c 	lw	ra,28(sp)
    5400:	8fb10018 	lw	s1,24(sp)
    5404:	8fb00014 	lw	s0,20(sp)
    5408:	03e00008 	jr	ra
    540c:	27bd0020 	addiu	sp,sp,32
    5410:	938274b0 	lbu	v0,29872(gp)
    5414:	10400008 	beqz	v0,5438 <OSTmrStart+0x6c>
    5418:	2402ff8b 	li	v0,-117
    541c:	a0a20000 	sb	v0,0(a1)
    5420:	8fbf001c 	lw	ra,28(sp)
    5424:	8fb10018 	lw	s1,24(sp)
    5428:	8fb00014 	lw	s0,20(sp)
    542c:	00001021 	move	v0,zero
    5430:	03e00008 	jr	ra
    5434:	27bd0020 	addiu	sp,sp,32
    5438:	0c001716 	jal	5c58 <OSSchedLock>
    543c:	00000000 	nop
    5440:	92020025 	lbu	v0,37(s0)
    5444:	2c430003 	sltiu	v1,v0,3
    5448:	10600009 	beqz	v1,5470 <OSTmrStart+0xa4>
    544c:	24030003 	li	v1,3
    5450:	1440000c 	bnez	v0,5484 <OSTmrStart+0xb8>
    5454:	02002021 	move	a0,s0
    5458:	0c0019b2 	jal	66c8 <OSSchedUnlock>
    545c:	00000000 	nop
    5460:	2402ff87 	li	v0,-121
    5464:	a2220000 	sb	v0,0(s1)
    5468:	080014ff 	j	53fc <OSTmrStart+0x30>
    546c:	00001021 	move	v0,zero
    5470:	1443000b 	bne	v0,v1,54a0 <OSTmrStart+0xd4>
    5474:	00000000 	nop
    5478:	0c001347 	jal	4d1c <OSTmr_Unlink>
    547c:	02002021 	move	a0,s0
    5480:	02002021 	move	a0,s0
    5484:	0c00131b 	jal	4c6c <OSTmr_Link>
    5488:	00002821 	move	a1,zero
    548c:	0c0019b2 	jal	66c8 <OSSchedUnlock>
    5490:	00000000 	nop
    5494:	a2200000 	sb	zero,0(s1)
    5498:	080014ff 	j	53fc <OSTmrStart+0x30>
    549c:	24020001 	li	v0,1
    54a0:	0c0019b2 	jal	66c8 <OSSchedUnlock>
    54a4:	00000000 	nop
    54a8:	2402ff8d 	li	v0,-115
    54ac:	a2220000 	sb	v0,0(s1)
    54b0:	080014ff 	j	53fc <OSTmrStart+0x30>
    54b4:	00001021 	move	v0,zero

000054b8 <OSTmrStop>:
    54b8:	27bdffd8 	addiu	sp,sp,-40
    54bc:	afb10020 	sw	s1,32(sp)
    54c0:	afb0001c 	sw	s0,28(sp)
    54c4:	afbf0024 	sw	ra,36(sp)
    54c8:	90820000 	lbu	v0,0(a0)
    54cc:	24030064 	li	v1,100
    54d0:	00808021 	move	s0,a0
    54d4:	10430009 	beq	v0,v1,54fc <OSTmrStop+0x44>
    54d8:	30b100ff 	andi	s1,a1,0xff
    54dc:	2402ff89 	li	v0,-119
    54e0:	a0e20000 	sb	v0,0(a3)
    54e4:	00001021 	move	v0,zero
    54e8:	8fbf0024 	lw	ra,36(sp)
    54ec:	8fb10020 	lw	s1,32(sp)
    54f0:	8fb0001c 	lw	s0,28(sp)
    54f4:	03e00008 	jr	ra
    54f8:	27bd0028 	addiu	sp,sp,40
    54fc:	938274b0 	lbu	v0,29872(gp)
    5500:	10400008 	beqz	v0,5524 <OSTmrStop+0x6c>
    5504:	2402ff8b 	li	v0,-117
    5508:	a0e20000 	sb	v0,0(a3)
    550c:	8fbf0024 	lw	ra,36(sp)
    5510:	8fb10020 	lw	s1,32(sp)
    5514:	8fb0001c 	lw	s0,28(sp)
    5518:	00001021 	move	v0,zero
    551c:	03e00008 	jr	ra
    5520:	27bd0028 	addiu	sp,sp,40
    5524:	afa60010 	sw	a2,16(sp)
    5528:	0c001716 	jal	5c58 <OSSchedLock>
    552c:	afa70014 	sw	a3,20(sp)
    5530:	92080025 	lbu	t0,37(s0)
    5534:	8fa60010 	lw	a2,16(sp)
    5538:	2d020003 	sltiu	v0,t0,3
    553c:	1040000a 	beqz	v0,5568 <OSTmrStop+0xb0>
    5540:	8fa70014 	lw	a3,20(sp)
    5544:	15000021 	bnez	t0,55cc <OSTmrStop+0x114>
    5548:	00000000 	nop
    554c:	0c0019b2 	jal	66c8 <OSSchedUnlock>
    5550:	afa70014 	sw	a3,20(sp)
    5554:	8fa70014 	lw	a3,20(sp)
    5558:	2402ff87 	li	v0,-121
    555c:	a0e20000 	sb	v0,0(a3)
    5560:	0800153a 	j	54e8 <OSTmrStop+0x30>
    5564:	00001021 	move	v0,zero
    5568:	24020003 	li	v0,3
    556c:	15020010 	bne	t0,v0,55b0 <OSTmrStop+0xf8>
    5570:	00000000 	nop
    5574:	0c001347 	jal	4d1c <OSTmr_Unlink>
    5578:	02002021 	move	a0,s0
    557c:	12280021 	beq	s1,t0,5604 <OSTmrStop+0x14c>
    5580:	a0e00000 	sb	zero,0(a3)
    5584:	24020004 	li	v0,4
    5588:	12220017 	beq	s1,v0,55e8 <OSTmrStop+0x130>
    558c:	00000000 	nop
    5590:	12200003 	beqz	s1,55a0 <OSTmrStop+0xe8>
    5594:	00000000 	nop
    5598:	2402ff84 	li	v0,-124
    559c:	a0e20000 	sb	v0,0(a3)
    55a0:	0c0019b2 	jal	66c8 <OSSchedUnlock>
    55a4:	00000000 	nop
    55a8:	0800153a 	j	54e8 <OSTmrStop+0x30>
    55ac:	24020001 	li	v0,1
    55b0:	0c0019b2 	jal	66c8 <OSSchedUnlock>
    55b4:	afa70014 	sw	a3,20(sp)
    55b8:	8fa70014 	lw	a3,20(sp)
    55bc:	2402ff8d 	li	v0,-115
    55c0:	a0e20000 	sb	v0,0(a3)
    55c4:	0800153a 	j	54e8 <OSTmrStop+0x30>
    55c8:	00001021 	move	v0,zero
    55cc:	0c0019b2 	jal	66c8 <OSSchedUnlock>
    55d0:	afa70014 	sw	a3,20(sp)
    55d4:	8fa70014 	lw	a3,20(sp)
    55d8:	2402ff8e 	li	v0,-114
    55dc:	a0e20000 	sb	v0,0(a3)
    55e0:	0800153a 	j	54e8 <OSTmrStop+0x30>
    55e4:	24020001 	li	v0,1
    55e8:	8e020004 	lw	v0,4(s0)
    55ec:	1040000d 	beqz	v0,5624 <OSTmrStop+0x16c>
    55f0:	02002021 	move	a0,s0
    55f4:	0040f809 	jalr	v0
    55f8:	00c02821 	move	a1,a2
    55fc:	08001568 	j	55a0 <OSTmrStop+0xe8>
    5600:	00000000 	nop
    5604:	8e020004 	lw	v0,4(s0)
    5608:	10400006 	beqz	v0,5624 <OSTmrStop+0x16c>
    560c:	00000000 	nop
    5610:	8e050008 	lw	a1,8(s0)
    5614:	0040f809 	jalr	v0
    5618:	02002021 	move	a0,s0
    561c:	08001568 	j	55a0 <OSTmrStop+0xe8>
    5620:	00000000 	nop
    5624:	2402ff8f 	li	v0,-113
    5628:	08001568 	j	55a0 <OSTmrStop+0xe8>
    562c:	a0e20000 	sb	v0,0(a3)

00005630 <OSTmrSignal>:
    5630:	08000db5 	j	36d4 <OSSemPost>
    5634:	8f847468 	lw	a0,29800(gp)

00005638 <OSTmr_Init>:
    5638:	27bdffc8 	addiu	sp,sp,-56
    563c:	afb00030 	sw	s0,48(sp)
    5640:	3c100000 	lui	s0,0x0
    5644:	26047b48 	addiu	a0,s0,31560
    5648:	afbf0034 	sw	ra,52(sp)
    564c:	0c00186d 	jal	61b4 <OS_MemClr>
    5650:	24050280 	li	a1,640
    5654:	3c040000 	lui	a0,0x0
    5658:	24050040 	li	a1,64
    565c:	0c00186d 	jal	61b4 <OS_MemClr>
    5660:	24847ab8 	addiu	a0,a0,31416
    5664:	26087b48 	addiu	t0,s0,31560
    5668:	3c020000 	lui	v0,0x0
    566c:	3c050000 	lui	a1,0x0
    5670:	24427b70 	addiu	v0,v0,31600
    5674:	25070280 	addiu	a3,t0,640
    5678:	01001821 	move	v1,t0
    567c:	24a57404 	addiu	a1,a1,29700
    5680:	080015a3 	j	568c <OSTmr_Init+0x54>
    5684:	24060064 	li	a2,100
    5688:	00801821 	move	v1,a0
    568c:	00402021 	move	a0,v0
    5690:	ac62000c 	sw	v0,12(v1)
    5694:	24420028 	addiu	v0,v0,40
    5698:	a0660000 	sb	a2,0(v1)
    569c:	a0600025 	sb	zero,37(v1)
    56a0:	1447fff9 	bne	v0,a3,5688 <OSTmr_Init+0x50>
    56a4:	ac650020 	sw	a1,32(v1)
    56a8:	24020064 	li	v0,100
    56ac:	a1020258 	sb	v0,600(t0)
    56b0:	24040001 	li	a0,1
    56b4:	24020010 	li	v0,16
    56b8:	ad050278 	sw	a1,632(t0)
    56bc:	a100027d 	sb	zero,637(t0)
    56c0:	ad000264 	sw	zero,612(t0)
    56c4:	af887460 	sw	t0,29792(gp)
    56c8:	af8074b8 	sw	zero,29880(gp)
    56cc:	a7807474 	sh	zero,29812(gp)
    56d0:	0c000c8d 	jal	3234 <OSSemCreate>
    56d4:	a7827484 	sh	v0,29828(gp)
    56d8:	00002021 	move	a0,zero
    56dc:	0c000c8d 	jal	3234 <OSSemCreate>
    56e0:	af8274c0 	sw	v0,29888(gp)
    56e4:	8f8474c0 	lw	a0,29888(gp)
    56e8:	3c050000 	lui	a1,0x0
    56ec:	27a60029 	addiu	a2,sp,41
    56f0:	24a57408 	addiu	a1,a1,29704
    56f4:	0c001627 	jal	589c <OSEventNameSet>
    56f8:	af827468 	sw	v0,29800(gp)
    56fc:	8f847468 	lw	a0,29800(gp)
    5700:	3c050000 	lui	a1,0x0
    5704:	27a60029 	addiu	a2,sp,41
    5708:	0c001627 	jal	589c <OSEventNameSet>
    570c:	24a5741c 	addiu	a1,a1,29724
    5710:	3402fffd 	li	v0,0xfffd
    5714:	afa20010 	sw	v0,16(sp)
    5718:	3c020001 	lui	v0,0x1
    571c:	244280a0 	addiu	v0,v0,-32608
    5720:	afa20014 	sw	v0,20(sp)
    5724:	24020080 	li	v0,128
    5728:	afa20018 	sw	v0,24(sp)
    572c:	3c040000 	lui	a0,0x0
    5730:	24020003 	li	v0,3
    5734:	3c060001 	lui	a2,0x1
    5738:	24844da4 	addiu	a0,a0,19876
    573c:	00002821 	move	a1,zero
    5740:	24c6829c 	addiu	a2,a2,-32100
    5744:	afa0001c 	sw	zero,28(sp)
    5748:	afa20020 	sw	v0,32(sp)
    574c:	0c000f0b 	jal	3c2c <OSTaskCreateExt>
    5750:	2407003d 	li	a3,61
    5754:	3c050000 	lui	a1,0x0
    5758:	27a60028 	addiu	a2,sp,40
    575c:	2404003d 	li	a0,61
    5760:	0c001079 	jal	41e4 <OSTaskNameSet>
    5764:	24a57430 	addiu	a1,a1,29744
    5768:	8fbf0034 	lw	ra,52(sp)
    576c:	8fb00030 	lw	s0,48(sp)
    5770:	03e00008 	jr	ra
    5774:	27bd0038 	addiu	sp,sp,56

00005778 <OSDebugInit>:
    5778:	03e00008 	jr	ra
    577c:	00000000 	nop

00005780 <OS_TaskIdle>:
    5780:	27bdffe0 	addiu	sp,sp,-32
    5784:	afbf001c 	sw	ra,28(sp)
    5788:	afa00010 	sw	zero,16(sp)
    578c:	0c001b9b 	jal	6e6c <OS_CPU_SR_Save>
    5790:	00000000 	nop
    5794:	afa20010 	sw	v0,16(sp)
    5798:	8f827470 	lw	v0,29808(gp)
    579c:	24420001 	addiu	v0,v0,1
    57a0:	af827470 	sw	v0,29808(gp)
    57a4:	8fa40010 	lw	a0,16(sp)
    57a8:	0c001ba2 	jal	6e88 <OS_CPU_SR_Restore>
    57ac:	00000000 	nop
    57b0:	0c001ab1 	jal	6ac4 <OSTaskIdleHook>
    57b4:	00000000 	nop
    57b8:	080015e3 	j	578c <OS_TaskIdle+0xc>
    57bc:	00000000 	nop

000057c0 <OSEventNameGet>:
    57c0:	938274b0 	lbu	v0,29872(gp)
    57c4:	27bdffd0 	addiu	sp,sp,-48
    57c8:	afbf002c 	sw	ra,44(sp)
    57cc:	afb00028 	sw	s0,40(sp)
    57d0:	afa00010 	sw	zero,16(sp)
    57d4:	14400028 	bnez	v0,5878 <OSEventNameGet+0xb8>
    57d8:	24030003 	li	v1,3
    57dc:	90820000 	lbu	v0,0(a0)
    57e0:	2442ffff 	addiu	v0,v0,-1
    57e4:	0062102b 	sltu	v0,v1,v0
    57e8:	10400007 	beqz	v0,5808 <OSEventNameGet+0x48>
    57ec:	24020001 	li	v0,1
    57f0:	a0c20000 	sb	v0,0(a2)
    57f4:	8fbf002c 	lw	ra,44(sp)
    57f8:	8fb00028 	lw	s0,40(sp)
    57fc:	00001021 	move	v0,zero
    5800:	03e00008 	jr	ra
    5804:	27bd0030 	addiu	sp,sp,48
    5808:	afa40018 	sw	a0,24(sp)
    580c:	afa5001c 	sw	a1,28(sp)
    5810:	0c001b9b 	jal	6e6c <OS_CPU_SR_Save>
    5814:	afa60020 	sw	a2,32(sp)
    5818:	8fa40018 	lw	a0,24(sp)
    581c:	8fa5001c 	lw	a1,28(sp)
    5820:	8c870014 	lw	a3,20(a0)
    5824:	afa20010 	sw	v0,16(sp)
    5828:	aca70000 	sw	a3,0(a1)
    582c:	90e20000 	lbu	v0,0(a3)
    5830:	10400018 	beqz	v0,5894 <OSEventNameGet+0xd4>
    5834:	8fa60020 	lw	a2,32(sp)
    5838:	00e01821 	move	v1,a3
    583c:	24630001 	addiu	v1,v1,1
    5840:	90640000 	lbu	a0,0(v1)
    5844:	00671023 	subu	v0,v1,a3
    5848:	1480fffc 	bnez	a0,583c <OSEventNameGet+0x7c>
    584c:	305000ff 	andi	s0,v0,0xff
    5850:	8fa40010 	lw	a0,16(sp)
    5854:	0c001ba2 	jal	6e88 <OS_CPU_SR_Restore>
    5858:	afa60020 	sw	a2,32(sp)
    585c:	8fa60020 	lw	a2,32(sp)
    5860:	02001021 	move	v0,s0
    5864:	a0c00000 	sb	zero,0(a2)
    5868:	8fbf002c 	lw	ra,44(sp)
    586c:	8fb00028 	lw	s0,40(sp)
    5870:	03e00008 	jr	ra
    5874:	27bd0030 	addiu	sp,sp,48
    5878:	24020011 	li	v0,17
    587c:	a0c20000 	sb	v0,0(a2)
    5880:	8fbf002c 	lw	ra,44(sp)
    5884:	8fb00028 	lw	s0,40(sp)
    5888:	00001021 	move	v0,zero
    588c:	03e00008 	jr	ra
    5890:	27bd0030 	addiu	sp,sp,48
    5894:	08001614 	j	5850 <OSEventNameGet+0x90>
    5898:	00008021 	move	s0,zero

0000589c <OSEventNameSet>:
    589c:	938274b0 	lbu	v0,29872(gp)
    58a0:	27bdffd0 	addiu	sp,sp,-48
    58a4:	afbf002c 	sw	ra,44(sp)
    58a8:	afa00010 	sw	zero,16(sp)
    58ac:	1440001a 	bnez	v0,5918 <OSEventNameSet+0x7c>
    58b0:	24030003 	li	v1,3
    58b4:	90820000 	lbu	v0,0(a0)
    58b8:	2442ffff 	addiu	v0,v0,-1
    58bc:	0062102b 	sltu	v0,v1,v0
    58c0:	10400005 	beqz	v0,58d8 <OSEventNameSet+0x3c>
    58c4:	24020001 	li	v0,1
    58c8:	a0c20000 	sb	v0,0(a2)
    58cc:	8fbf002c 	lw	ra,44(sp)
    58d0:	03e00008 	jr	ra
    58d4:	27bd0030 	addiu	sp,sp,48
    58d8:	afa60020 	sw	a2,32(sp)
    58dc:	afa40018 	sw	a0,24(sp)
    58e0:	0c001b9b 	jal	6e6c <OS_CPU_SR_Save>
    58e4:	afa5001c 	sw	a1,28(sp)
    58e8:	afa20010 	sw	v0,16(sp)
    58ec:	8fa40018 	lw	a0,24(sp)
    58f0:	8fa20010 	lw	v0,16(sp)
    58f4:	8fa5001c 	lw	a1,28(sp)
    58f8:	ac850014 	sw	a1,20(a0)
    58fc:	0c001ba2 	jal	6e88 <OS_CPU_SR_Restore>
    5900:	00402021 	move	a0,v0
    5904:	8fa60020 	lw	a2,32(sp)
    5908:	a0c00000 	sb	zero,0(a2)
    590c:	8fbf002c 	lw	ra,44(sp)
    5910:	03e00008 	jr	ra
    5914:	27bd0030 	addiu	sp,sp,48
    5918:	24020012 	li	v0,18
    591c:	a0c20000 	sb	v0,0(a2)
    5920:	8fbf002c 	lw	ra,44(sp)
    5924:	03e00008 	jr	ra
    5928:	27bd0030 	addiu	sp,sp,48

0000592c <OSInit>:
    592c:	27bdffc0 	addiu	sp,sp,-64
    5930:	afbf003c 	sw	ra,60(sp)
    5934:	afb10038 	sw	s1,56(sp)
    5938:	0c001aa7 	jal	6a9c <OSInitHookBegin>
    593c:	afb00034 	sw	s0,52(sp)
    5940:	278274a4 	addiu	v0,gp,29860
    5944:	af8074bc 	sw	zero,29884(gp)
    5948:	a38074b0 	sb	zero,29872(gp)
    594c:	a3807464 	sb	zero,29796(gp)
    5950:	a3807491 	sb	zero,29841(gp)
    5954:	a380746c 	sb	zero,29804(gp)
    5958:	af807480 	sw	zero,29824(gp)
    595c:	af807470 	sw	zero,29808(gp)
    5960:	af8074cc 	sw	zero,29900(gp)
    5964:	af807488 	sw	zero,29832(gp)
    5968:	a38074c8 	sb	zero,29896(gp)
    596c:	a38074a0 	sb	zero,29856(gp)
    5970:	24430008 	addiu	v1,v0,8
    5974:	a0400000 	sb	zero,0(v0)
    5978:	24420001 	addiu	v0,v0,1
    597c:	1443fffd 	bne	v0,v1,5974 <OSInit+0x48>
    5980:	3c080001 	lui	t0,0x1
    5984:	25088590 	addiu	t0,t0,-31344
    5988:	3c030001 	lui	v1,0x1
    598c:	a3807477 	sb	zero,29815(gp)
    5990:	a3807476 	sb	zero,29814(gp)
    5994:	af807498 	sw	zero,29848(gp)
    5998:	af8074b4 	sw	zero,29876(gp)
    599c:	01001021 	move	v0,t0
    59a0:	24638d20 	addiu	v1,v1,-29408
    59a4:	24420001 	addiu	v0,v0,1
    59a8:	1443fffe 	bne	v0,v1,59a4 <OSInit+0x78>
    59ac:	a040ffff 	sb	zero,-1(v0)
    59b0:	3c020001 	lui	v0,0x1
    59b4:	3c040001 	lui	a0,0x1
    59b8:	24428d20 	addiu	v0,v0,-29408
    59bc:	24848e20 	addiu	a0,a0,-29152
    59c0:	24420001 	addiu	v0,v0,1
    59c4:	1444fffe 	bne	v0,a0,59c0 <OSInit+0x94>
    59c8:	a040ffff 	sb	zero,-1(v0)
    59cc:	3c020001 	lui	v0,0x1
    59d0:	3c060000 	lui	a2,0x0
    59d4:	244285e8 	addiu	v0,v0,-31256
    59d8:	01002021 	move	a0,t0
    59dc:	0800167a 	j	59e8 <OSInit+0xbc>
    59e0:	24c67404 	addiu	a2,a2,29700
    59e4:	00a02021 	move	a0,a1
    59e8:	00402821 	move	a1,v0
    59ec:	ac820014 	sw	v0,20(a0)
    59f0:	24420058 	addiu	v0,v0,88
    59f4:	1443fffb 	bne	v0,v1,59e4 <OSInit+0xb8>
    59f8:	ac860050 	sw	a2,80(a0)
    59fc:	3c070001 	lui	a3,0x1
    5a00:	24e784a0 	addiu	a3,a3,-31584
    5a04:	3c030001 	lui	v1,0x1
    5a08:	ad00074c 	sw	zero,1868(t0)
    5a0c:	ad060788 	sw	a2,1928(t0)
    5a10:	af807478 	sw	zero,29816(gp)
    5a14:	af88748c 	sw	t0,29836(gp)
    5a18:	00e01021 	move	v0,a3
    5a1c:	24638590 	addiu	v1,v1,-31344
    5a20:	24420001 	addiu	v0,v0,1
    5a24:	1443fffe 	bne	v0,v1,5a20 <OSInit+0xf4>
    5a28:	a040ffff 	sb	zero,-1(v0)
    5a2c:	3c030001 	lui	v1,0x1
    5a30:	246384b8 	addiu	v1,v1,-31560
    5a34:	08001690 	j	5a40 <OSInit+0x114>
    5a38:	00e02021 	move	a0,a3
    5a3c:	00a02021 	move	a0,a1
    5a40:	00602821 	move	a1,v1
    5a44:	ac830004 	sw	v1,4(a0)
    5a48:	24630018 	addiu	v1,v1,24
    5a4c:	a0800000 	sb	zero,0(a0)
    5a50:	1443fffa 	bne	v0,v1,5a3c <OSInit+0x110>
    5a54:	ac860014 	sw	a2,20(a0)
    5a58:	ace600ec 	sw	a2,236(a3)
    5a5c:	a0e000d8 	sb	zero,216(a3)
    5a60:	ace000dc 	sw	zero,220(a3)
    5a64:	0c000411 	jal	1044 <OS_FlagInit>
    5a68:	af8774ac 	sw	a3,29868(gp)
    5a6c:	0c000711 	jal	1c44 <OS_MemInit>
    5a70:	24110080 	li	s1,128
    5a74:	0c000c5a 	jal	3168 <OS_QInit>
    5a78:	24100003 	li	s0,3
    5a7c:	3402ffff 	li	v0,0xffff
    5a80:	afa20010 	sw	v0,16(sp)
    5a84:	3c020001 	lui	v0,0x1
    5a88:	244282a0 	addiu	v0,v0,-32096
    5a8c:	3c040000 	lui	a0,0x0
    5a90:	3c060001 	lui	a2,0x1
    5a94:	2407003f 	li	a3,63
    5a98:	afb10018 	sw	s1,24(sp)
    5a9c:	afb00020 	sw	s0,32(sp)
    5aa0:	24845780 	addiu	a0,a0,22400
    5aa4:	00002821 	move	a1,zero
    5aa8:	24c6849c 	addiu	a2,a2,-31588
    5aac:	afa20014 	sw	v0,20(sp)
    5ab0:	0c000f0b 	jal	3c2c <OSTaskCreateExt>
    5ab4:	afa0001c 	sw	zero,28(sp)
    5ab8:	3c050000 	lui	a1,0x0
    5abc:	27a60028 	addiu	a2,sp,40
    5ac0:	2404003f 	li	a0,63
    5ac4:	0c001079 	jal	41e4 <OSTaskNameSet>
    5ac8:	24a57440 	addiu	a1,a1,29760
    5acc:	3402fffe 	li	v0,0xfffe
    5ad0:	afa20010 	sw	v0,16(sp)
    5ad4:	3c020000 	lui	v0,0x0
    5ad8:	24427e40 	addiu	v0,v0,32320
    5adc:	3c040000 	lui	a0,0x0
    5ae0:	3c060001 	lui	a2,0x1
    5ae4:	2407003e 	li	a3,62
    5ae8:	afb10018 	sw	s1,24(sp)
    5aec:	afb00020 	sw	s0,32(sp)
    5af0:	24846818 	addiu	a0,a0,26648
    5af4:	00002821 	move	a1,zero
    5af8:	24c6803c 	addiu	a2,a2,-32708
    5afc:	afa20014 	sw	v0,20(sp)
    5b00:	0c000f0b 	jal	3c2c <OSTaskCreateExt>
    5b04:	afa0001c 	sw	zero,28(sp)
    5b08:	3c050000 	lui	a1,0x0
    5b0c:	27a60028 	addiu	a2,sp,40
    5b10:	2404003e 	li	a0,62
    5b14:	0c001079 	jal	41e4 <OSTaskNameSet>
    5b18:	24a57450 	addiu	a1,a1,29776
    5b1c:	0c00158e 	jal	5638 <OSTmr_Init>
    5b20:	00000000 	nop
    5b24:	0c001aa9 	jal	6aa4 <OSInitHookEnd>
    5b28:	00000000 	nop
    5b2c:	0c0015de 	jal	5778 <OSDebugInit>
    5b30:	00000000 	nop
    5b34:	8fbf003c 	lw	ra,60(sp)
    5b38:	8fb10038 	lw	s1,56(sp)
    5b3c:	8fb00034 	lw	s0,52(sp)
    5b40:	03e00008 	jr	ra
    5b44:	27bd0040 	addiu	sp,sp,64

00005b48 <OSIntEnter>:
    5b48:	9383746c 	lbu	v1,29804(gp)
    5b4c:	24020001 	li	v0,1
    5b50:	10620003 	beq	v1,v0,5b60 <OSIntEnter+0x18>
    5b54:	938274b0 	lbu	v0,29872(gp)
    5b58:	03e00008 	jr	ra
    5b5c:	00000000 	nop
    5b60:	240300ff 	li	v1,255
    5b64:	1043fffc 	beq	v0,v1,5b58 <OSIntEnter+0x10>
    5b68:	24420001 	addiu	v0,v0,1
    5b6c:	03e00008 	jr	ra
    5b70:	a38274b0 	sb	v0,29872(gp)

00005b74 <OSIntExit>:
    5b74:	9383746c 	lbu	v1,29804(gp)
    5b78:	27bdffe0 	addiu	sp,sp,-32
    5b7c:	24020001 	li	v0,1
    5b80:	afbf001c 	sw	ra,28(sp)
    5b84:	afa00010 	sw	zero,16(sp)
    5b88:	10620003 	beq	v1,v0,5b98 <OSIntExit+0x24>
    5b8c:	8fbf001c 	lw	ra,28(sp)
    5b90:	03e00008 	jr	ra
    5b94:	27bd0020 	addiu	sp,sp,32
    5b98:	0c001b9b 	jal	6e6c <OS_CPU_SR_Save>
    5b9c:	00000000 	nop
    5ba0:	938374b0 	lbu	v1,29872(gp)
    5ba4:	afa20010 	sw	v0,16(sp)
    5ba8:	14600026 	bnez	v1,5c44 <OSIntExit+0xd0>
    5bac:	2463ffff 	addiu	v1,v1,-1
    5bb0:	93827464 	lbu	v0,29796(gp)
    5bb4:	1440001d 	bnez	v0,5c2c <OSIntExit+0xb8>
    5bb8:	938274a0 	lbu	v0,29856(gp)
    5bbc:	3c030000 	lui	v1,0x0
    5bc0:	246372cc 	addiu	v1,v1,29388
    5bc4:	00431021 	addu	v0,v0,v1
    5bc8:	90420000 	lbu	v0,0(v0)
    5bcc:	278474a4 	addiu	a0,gp,29860
    5bd0:	00822021 	addu	a0,a0,v0
    5bd4:	90840000 	lbu	a0,0(a0)
    5bd8:	000210c0 	sll	v0,v0,0x3
    5bdc:	00831821 	addu	v1,a0,v1
    5be0:	90630000 	lbu	v1,0(v1)
    5be4:	00431021 	addu	v0,v0,v1
    5be8:	304200ff 	andi	v0,v0,0xff
    5bec:	3c030001 	lui	v1,0x1
    5bf0:	00022080 	sll	a0,v0,0x2
    5bf4:	24638d20 	addiu	v1,v1,-29408
    5bf8:	00831821 	addu	v1,a0,v1
    5bfc:	8c630000 	lw	v1,0(v1)
    5c00:	93847477 	lbu	a0,29815(gp)
    5c04:	a3827476 	sb	v0,29814(gp)
    5c08:	10820008 	beq	a0,v0,5c2c <OSIntExit+0xb8>
    5c0c:	af837498 	sw	v1,29848(gp)
    5c10:	8c64003c 	lw	a0,60(v1)
    5c14:	8f827480 	lw	v0,29824(gp)
    5c18:	24840001 	addiu	a0,a0,1
    5c1c:	24420001 	addiu	v0,v0,1
    5c20:	ac64003c 	sw	a0,60(v1)
    5c24:	0c001b62 	jal	6d88 <OSIntCtxSw>
    5c28:	af827480 	sw	v0,29824(gp)
    5c2c:	8fa40010 	lw	a0,16(sp)
    5c30:	0c001ba2 	jal	6e88 <OS_CPU_SR_Restore>
    5c34:	00000000 	nop
    5c38:	8fbf001c 	lw	ra,28(sp)
    5c3c:	03e00008 	jr	ra
    5c40:	27bd0020 	addiu	sp,sp,32
    5c44:	306300ff 	andi	v1,v1,0xff
    5c48:	1460fff8 	bnez	v1,5c2c <OSIntExit+0xb8>
    5c4c:	a38374b0 	sb	v1,29872(gp)
    5c50:	080016ed 	j	5bb4 <OSIntExit+0x40>
    5c54:	93827464 	lbu	v0,29796(gp)

00005c58 <OSSchedLock>:
    5c58:	9383746c 	lbu	v1,29804(gp)
    5c5c:	27bdffe0 	addiu	sp,sp,-32
    5c60:	24020001 	li	v0,1
    5c64:	afbf001c 	sw	ra,28(sp)
    5c68:	afa00010 	sw	zero,16(sp)
    5c6c:	10620003 	beq	v1,v0,5c7c <OSSchedLock+0x24>
    5c70:	8fbf001c 	lw	ra,28(sp)
    5c74:	03e00008 	jr	ra
    5c78:	27bd0020 	addiu	sp,sp,32
    5c7c:	0c001b9b 	jal	6e6c <OS_CPU_SR_Save>
    5c80:	00000000 	nop
    5c84:	938374b0 	lbu	v1,29872(gp)
    5c88:	afa20010 	sw	v0,16(sp)
    5c8c:	14600005 	bnez	v1,5ca4 <OSSchedLock+0x4c>
    5c90:	93827464 	lbu	v0,29796(gp)
    5c94:	240300ff 	li	v1,255
    5c98:	10430002 	beq	v0,v1,5ca4 <OSSchedLock+0x4c>
    5c9c:	24420001 	addiu	v0,v0,1
    5ca0:	a3827464 	sb	v0,29796(gp)
    5ca4:	8fa40010 	lw	a0,16(sp)
    5ca8:	0c001ba2 	jal	6e88 <OS_CPU_SR_Restore>
    5cac:	00000000 	nop
    5cb0:	8fbf001c 	lw	ra,28(sp)
    5cb4:	03e00008 	jr	ra
    5cb8:	27bd0020 	addiu	sp,sp,32

00005cbc <OSStart>:
    5cbc:	9382746c 	lbu	v0,29804(gp)
    5cc0:	10400003 	beqz	v0,5cd0 <OSStart+0x14>
    5cc4:	938274a0 	lbu	v0,29856(gp)
    5cc8:	03e00008 	jr	ra
    5ccc:	00000000 	nop
    5cd0:	3c030000 	lui	v1,0x0
    5cd4:	246372cc 	addiu	v1,v1,29388
    5cd8:	00431021 	addu	v0,v0,v1
    5cdc:	90420000 	lbu	v0,0(v0)
    5ce0:	278474a4 	addiu	a0,gp,29860
    5ce4:	00822021 	addu	a0,a0,v0
    5ce8:	90840000 	lbu	a0,0(a0)
    5cec:	000210c0 	sll	v0,v0,0x3
    5cf0:	00831821 	addu	v1,a0,v1
    5cf4:	90630000 	lbu	v1,0(v1)
    5cf8:	00431021 	addu	v0,v0,v1
    5cfc:	304200ff 	andi	v0,v0,0xff
    5d00:	3c030001 	lui	v1,0x1
    5d04:	00022080 	sll	a0,v0,0x2
    5d08:	24638d20 	addiu	v1,v1,-29408
    5d0c:	00831821 	addu	v1,a0,v1
    5d10:	8c630000 	lw	v1,0(v1)
    5d14:	a3827476 	sb	v0,29814(gp)
    5d18:	a3827477 	sb	v0,29815(gp)
    5d1c:	af837498 	sw	v1,29848(gp)
    5d20:	08001b2e 	j	6cb8 <OSStartHighRdy>
    5d24:	af8374b4 	sw	v1,29876(gp)

00005d28 <OSStatInit>:
    5d28:	27bdffe0 	addiu	sp,sp,-32
    5d2c:	24040002 	li	a0,2
    5d30:	afbf001c 	sw	ra,28(sp)
    5d34:	afa00010 	sw	zero,16(sp)
    5d38:	0c00125d 	jal	4974 <OSTimeDly>
    5d3c:	00000000 	nop
    5d40:	0c001b9b 	jal	6e6c <OS_CPU_SR_Save>
    5d44:	00000000 	nop
    5d48:	afa20010 	sw	v0,16(sp)
    5d4c:	af807470 	sw	zero,29808(gp)
    5d50:	8fa40010 	lw	a0,16(sp)
    5d54:	0c001ba2 	jal	6e88 <OS_CPU_SR_Restore>
    5d58:	00000000 	nop
    5d5c:	0c00125d 	jal	4974 <OSTimeDly>
    5d60:	2404000a 	li	a0,10
    5d64:	0c001b9b 	jal	6e6c <OS_CPU_SR_Save>
    5d68:	00000000 	nop
    5d6c:	afa20010 	sw	v0,16(sp)
    5d70:	8f827470 	lw	v0,29808(gp)
    5d74:	8fa40010 	lw	a0,16(sp)
    5d78:	af827488 	sw	v0,29832(gp)
    5d7c:	24020001 	li	v0,1
    5d80:	0c001ba2 	jal	6e88 <OS_CPU_SR_Restore>
    5d84:	a38274c8 	sb	v0,29896(gp)
    5d88:	8fbf001c 	lw	ra,28(sp)
    5d8c:	03e00008 	jr	ra
    5d90:	27bd0020 	addiu	sp,sp,32

00005d94 <OSTimeTick>:
    5d94:	27bdffd0 	addiu	sp,sp,-48
    5d98:	afbf002c 	sw	ra,44(sp)
    5d9c:	afb40028 	sw	s4,40(sp)
    5da0:	afb30024 	sw	s3,36(sp)
    5da4:	afb20020 	sw	s2,32(sp)
    5da8:	afb1001c 	sw	s1,28(sp)
    5dac:	afb00018 	sw	s0,24(sp)
    5db0:	afa00010 	sw	zero,16(sp)
    5db4:	0c001b18 	jal	6c60 <OSTimeTickHook>
    5db8:	00000000 	nop
    5dbc:	0c001b9b 	jal	6e6c <OS_CPU_SR_Save>
    5dc0:	00000000 	nop
    5dc4:	afa20010 	sw	v0,16(sp)
    5dc8:	8f8274bc 	lw	v0,29884(gp)
    5dcc:	24420001 	addiu	v0,v0,1
    5dd0:	af8274bc 	sw	v0,29884(gp)
    5dd4:	8fa40010 	lw	a0,16(sp)
    5dd8:	0c001ba2 	jal	6e88 <OS_CPU_SR_Restore>
    5ddc:	00000000 	nop
    5de0:	9382746c 	lbu	v0,29804(gp)
    5de4:	24030001 	li	v1,1
    5de8:	10430009 	beq	v0,v1,5e10 <OSTimeTick+0x7c>
    5dec:	9383747c 	lbu	v1,29820(gp)
    5df0:	8fbf002c 	lw	ra,44(sp)
    5df4:	8fb40028 	lw	s4,40(sp)
    5df8:	8fb30024 	lw	s3,36(sp)
    5dfc:	8fb20020 	lw	s2,32(sp)
    5e00:	8fb1001c 	lw	s1,28(sp)
    5e04:	8fb00018 	lw	s0,24(sp)
    5e08:	03e00008 	jr	ra
    5e0c:	27bd0030 	addiu	sp,sp,48
    5e10:	1062fff8 	beq	v1,v0,5df4 <OSTimeTick+0x60>
    5e14:	8fbf002c 	lw	ra,44(sp)
    5e18:	10600004 	beqz	v1,5e2c <OSTimeTick+0x98>
    5e1c:	24040002 	li	a0,2
    5e20:	1464002f 	bne	v1,a0,5ee0 <OSTimeTick+0x14c>
    5e24:	00000000 	nop
    5e28:	a382747c 	sb	v0,29820(gp)
    5e2c:	8f907478 	lw	s0,29816(gp)
    5e30:	2402003f 	li	v0,63
    5e34:	92030036 	lbu	v1,54(s0)
    5e38:	1062ffed 	beq	v1,v0,5df0 <OSTimeTick+0x5c>
    5e3c:	279474a4 	addiu	s4,gp,29860
    5e40:	2412ffc8 	li	s2,-56
    5e44:	24130001 	li	s3,1
    5e48:	080017aa 	j	5ea8 <OSTimeTick+0x114>
    5e4c:	2411003f 	li	s1,63
    5e50:	a2040034 	sb	a0,52(s0)
    5e54:	00801021 	move	v0,a0
    5e58:	a2130035 	sb	s3,53(s0)
    5e5c:	30420008 	andi	v0,v0,0x8
    5e60:	1440000a 	bnez	v0,5e8c <OSTimeTick+0xf8>
    5e64:	938674a0 	lbu	a2,29856(gp)
    5e68:	92020038 	lbu	v0,56(s0)
    5e6c:	02821021 	addu	v0,s4,v0
    5e70:	90450000 	lbu	a1,0(v0)
    5e74:	9204003a 	lbu	a0,58(s0)
    5e78:	92030039 	lbu	v1,57(s0)
    5e7c:	00c42025 	or	a0,a2,a0
    5e80:	00a31825 	or	v1,a1,v1
    5e84:	a38474a0 	sb	a0,29856(gp)
    5e88:	a0430000 	sb	v1,0(v0)
    5e8c:	8e100014 	lw	s0,20(s0)
    5e90:	8fa40010 	lw	a0,16(sp)
    5e94:	0c001ba2 	jal	6e88 <OS_CPU_SR_Restore>
    5e98:	00000000 	nop
    5e9c:	92020036 	lbu	v0,54(s0)
    5ea0:	1051ffd4 	beq	v0,s1,5df4 <OSTimeTick+0x60>
    5ea4:	8fbf002c 	lw	ra,44(sp)
    5ea8:	0c001b9b 	jal	6e6c <OS_CPU_SR_Save>
    5eac:	00000000 	nop
    5eb0:	8e030030 	lw	v1,48(s0)
    5eb4:	afa20010 	sw	v0,16(sp)
    5eb8:	1060fff4 	beqz	v1,5e8c <OSTimeTick+0xf8>
    5ebc:	2462ffff 	addiu	v0,v1,-1
    5ec0:	1440fff2 	bnez	v0,5e8c <OSTimeTick+0xf8>
    5ec4:	ae020030 	sw	v0,48(s0)
    5ec8:	92020034 	lbu	v0,52(s0)
    5ecc:	30430037 	andi	v1,v0,0x37
    5ed0:	1460ffdf 	bnez	v1,5e50 <OSTimeTick+0xbc>
    5ed4:	00522024 	and	a0,v0,s2
    5ed8:	08001797 	j	5e5c <OSTimeTick+0xc8>
    5edc:	a2000035 	sb	zero,53(s0)
    5ee0:	0800178b 	j	5e2c <OSTimeTick+0x98>
    5ee4:	a380747c 	sb	zero,29820(gp)

00005ee8 <OSVersion>:
    5ee8:	03e00008 	jr	ra
    5eec:	24020123 	li	v0,291

00005ef0 <OS_Dummy>:
    5ef0:	03e00008 	jr	ra
    5ef4:	00000000 	nop

00005ef8 <OS_EventTaskWait>:
    5ef8:	8f8274b4 	lw	v0,29876(gp)
    5efc:	90430038 	lbu	v1,56(v0)
    5f00:	ac44001c 	sw	a0,28(v0)
    5f04:	00831821 	addu	v1,a0,v1
    5f08:	9067000b 	lbu	a3,11(v1)
    5f0c:	90460039 	lbu	a2,57(v0)
    5f10:	9085000a 	lbu	a1,10(a0)
    5f14:	00e63025 	or	a2,a3,a2
    5f18:	a066000b 	sb	a2,11(v1)
    5f1c:	9043003a 	lbu	v1,58(v0)
    5f20:	00651825 	or	v1,v1,a1
    5f24:	a083000a 	sb	v1,10(a0)
    5f28:	90440038 	lbu	a0,56(v0)
    5f2c:	278574a4 	addiu	a1,gp,29860
    5f30:	00a42021 	addu	a0,a1,a0
    5f34:	90430039 	lbu	v1,57(v0)
    5f38:	90850000 	lbu	a1,0(a0)
    5f3c:	00031827 	nor	v1,zero,v1
    5f40:	00651824 	and	v1,v1,a1
    5f44:	14600006 	bnez	v1,5f60 <OS_EventTaskWait+0x68>
    5f48:	a0830000 	sb	v1,0(a0)
    5f4c:	9042003a 	lbu	v0,58(v0)
    5f50:	938374a0 	lbu	v1,29856(gp)
    5f54:	00021027 	nor	v0,zero,v0
    5f58:	00431024 	and	v0,v0,v1
    5f5c:	a38274a0 	sb	v0,29856(gp)
    5f60:	03e00008 	jr	ra
    5f64:	00000000 	nop

00005f68 <OS_EventTaskWaitMulti>:
    5f68:	8f8374b4 	lw	v1,29876(gp)
    5f6c:	ac60001c 	sw	zero,28(v1)
    5f70:	ac640020 	sw	a0,32(v1)
    5f74:	8c820000 	lw	v0,0(a0)
    5f78:	1040000f 	beqz	v0,5fb8 <OS_EventTaskWaitMulti+0x50>
    5f7c:	00000000 	nop
    5f80:	90650038 	lbu	a1,56(v1)
    5f84:	90670039 	lbu	a3,57(v1)
    5f88:	00452821 	addu	a1,v0,a1
    5f8c:	90a8000b 	lbu	t0,11(a1)
    5f90:	9046000a 	lbu	a2,10(v0)
    5f94:	01073825 	or	a3,t0,a3
    5f98:	a0a7000b 	sb	a3,11(a1)
    5f9c:	9065003a 	lbu	a1,58(v1)
    5fa0:	24840004 	addiu	a0,a0,4
    5fa4:	00a62825 	or	a1,a1,a2
    5fa8:	a045000a 	sb	a1,10(v0)
    5fac:	8c820000 	lw	v0,0(a0)
    5fb0:	1440fff3 	bnez	v0,5f80 <OS_EventTaskWaitMulti+0x18>
    5fb4:	00000000 	nop
    5fb8:	90620038 	lbu	v0,56(v1)
    5fbc:	278474a4 	addiu	a0,gp,29860
    5fc0:	00822021 	addu	a0,a0,v0
    5fc4:	90620039 	lbu	v0,57(v1)
    5fc8:	90850000 	lbu	a1,0(a0)
    5fcc:	00021027 	nor	v0,zero,v0
    5fd0:	00451024 	and	v0,v0,a1
    5fd4:	14400007 	bnez	v0,5ff4 <OS_EventTaskWaitMulti+0x8c>
    5fd8:	a0820000 	sb	v0,0(a0)
    5fdc:	9062003a 	lbu	v0,58(v1)
    5fe0:	938374a0 	lbu	v1,29856(gp)
    5fe4:	00021027 	nor	v0,zero,v0
    5fe8:	00431024 	and	v0,v0,v1
    5fec:	03e00008 	jr	ra
    5ff0:	a38274a0 	sb	v0,29856(gp)
    5ff4:	03e00008 	jr	ra
    5ff8:	00000000 	nop

00005ffc <OS_EventTaskRemove>:
    5ffc:	90830038 	lbu	v1,56(a0)
    6000:	90820039 	lbu	v0,57(a0)
    6004:	00a31821 	addu	v1,a1,v1
    6008:	9066000b 	lbu	a2,11(v1)
    600c:	00021027 	nor	v0,zero,v0
    6010:	00461024 	and	v0,v0,a2
    6014:	14400006 	bnez	v0,6030 <OS_EventTaskRemove+0x34>
    6018:	a062000b 	sb	v0,11(v1)
    601c:	9082003a 	lbu	v0,58(a0)
    6020:	90a3000a 	lbu	v1,10(a1)
    6024:	00021027 	nor	v0,zero,v0
    6028:	00431024 	and	v0,v0,v1
    602c:	a0a2000a 	sb	v0,10(a1)
    6030:	03e00008 	jr	ra
    6034:	00000000 	nop

00006038 <OS_EventTaskRemoveMulti>:
    6038:	8ca20000 	lw	v0,0(a1)
    603c:	90860038 	lbu	a2,56(a0)
    6040:	9088003a 	lbu	t0,58(a0)
    6044:	10400010 	beqz	v0,6088 <OS_EventTaskRemoveMulti+0x50>
    6048:	90870039 	lbu	a3,57(a0)
    604c:	00073827 	nor	a3,zero,a3
    6050:	30e700ff 	andi	a3,a3,0xff
    6054:	00084027 	nor	t0,zero,t0
    6058:	00462021 	addu	a0,v0,a2
    605c:	9083000b 	lbu	v1,11(a0)
    6060:	24a50004 	addiu	a1,a1,4
    6064:	00e31824 	and	v1,a3,v1
    6068:	14600004 	bnez	v1,607c <OS_EventTaskRemoveMulti+0x44>
    606c:	a083000b 	sb	v1,11(a0)
    6070:	9043000a 	lbu	v1,10(v0)
    6074:	01031824 	and	v1,t0,v1
    6078:	a043000a 	sb	v1,10(v0)
    607c:	8ca20000 	lw	v0,0(a1)
    6080:	1440fff5 	bnez	v0,6058 <OS_EventTaskRemoveMulti+0x20>
    6084:	00000000 	nop
    6088:	03e00008 	jr	ra
    608c:	00000000 	nop

00006090 <OS_EventTaskRdy>:
    6090:	27bdffe8 	addiu	sp,sp,-24
    6094:	afbf0014 	sw	ra,20(sp)
    6098:	9083000a 	lbu	v1,10(a0)
    609c:	3c020000 	lui	v0,0x0
    60a0:	244272cc 	addiu	v0,v0,29388
    60a4:	00621821 	addu	v1,v1,v0
    60a8:	90630000 	lbu	v1,0(v1)
    60ac:	00805021 	move	t2,a0
    60b0:	00832021 	addu	a0,a0,v1
    60b4:	9084000b 	lbu	a0,11(a0)
    60b8:	000358c0 	sll	t3,v1,0x3
    60bc:	00821021 	addu	v0,a0,v0
    60c0:	90420000 	lbu	v0,0(v0)
    60c4:	30c600ff 	andi	a2,a2,0xff
    60c8:	01625821 	addu	t3,t3,v0
    60cc:	316b00ff 	andi	t3,t3,0xff
    60d0:	3c020001 	lui	v0,0x1
    60d4:	000b2080 	sll	a0,t3,0x2
    60d8:	24428d20 	addiu	v0,v0,-29408
    60dc:	00821021 	addu	v0,a0,v0
    60e0:	8c490000 	lw	t1,0(v0)
    60e4:	00061027 	nor	v0,zero,a2
    60e8:	91240034 	lbu	a0,52(t1)
    60ec:	ad200030 	sw	zero,48(t1)
    60f0:	00441024 	and	v0,v0,a0
    60f4:	30440008 	andi	a0,v0,0x8
    60f8:	ad250024 	sw	a1,36(t1)
    60fc:	a1220034 	sb	v0,52(t1)
    6100:	10800018 	beqz	a0,6164 <OS_EventTaskRdy+0xd4>
    6104:	a1270035 	sb	a3,53(t1)
    6108:	91220039 	lbu	v0,57(t1)
    610c:	91230038 	lbu	v1,56(t1)
    6110:	00021027 	nor	v0,zero,v0
    6114:	01431821 	addu	v1,t2,v1
    6118:	9064000b 	lbu	a0,11(v1)
    611c:	00441024 	and	v0,v0,a0
    6120:	14400006 	bnez	v0,613c <OS_EventTaskRdy+0xac>
    6124:	a062000b 	sb	v0,11(v1)
    6128:	9122003a 	lbu	v0,58(t1)
    612c:	9143000a 	lbu	v1,10(t2)
    6130:	00021027 	nor	v0,zero,v0
    6134:	00431024 	and	v0,v0,v1
    6138:	a142000a 	sb	v0,10(t2)
    613c:	8d250020 	lw	a1,32(t1)
    6140:	10a00005 	beqz	a1,6158 <OS_EventTaskRdy+0xc8>
    6144:	8fbf0014 	lw	ra,20(sp)
    6148:	0c00180e 	jal	6038 <OS_EventTaskRemoveMulti>
    614c:	01202021 	move	a0,t1
    6150:	ad2a001c 	sw	t2,28(t1)
    6154:	8fbf0014 	lw	ra,20(sp)
    6158:	01601021 	move	v0,t3
    615c:	03e00008 	jr	ra
    6160:	27bd0018 	addiu	sp,sp,24
    6164:	278274a4 	addiu	v0,gp,29860
    6168:	00431821 	addu	v1,v0,v1
    616c:	938674a0 	lbu	a2,29856(gp)
    6170:	90640000 	lbu	a0,0(v1)
    6174:	91220039 	lbu	v0,57(t1)
    6178:	9125003a 	lbu	a1,58(t1)
    617c:	00442025 	or	a0,v0,a0
    6180:	00c52825 	or	a1,a2,a1
    6184:	a38574a0 	sb	a1,29856(gp)
    6188:	08001843 	j	610c <OS_EventTaskRdy+0x7c>
    618c:	a0640000 	sb	a0,0(v1)

00006190 <OS_EventWaitListInit>:
    6190:	a080000a 	sb	zero,10(a0)
    6194:	00001021 	move	v0,zero
    6198:	24050008 	li	a1,8
    619c:	00821821 	addu	v1,a0,v0
    61a0:	24420001 	addiu	v0,v0,1
    61a4:	1445fffd 	bne	v0,a1,619c <OS_EventWaitListInit+0xc>
    61a8:	a060000b 	sb	zero,11(v1)
    61ac:	03e00008 	jr	ra
    61b0:	00000000 	nop

000061b4 <OS_MemClr>:
    61b4:	30a5ffff 	andi	a1,a1,0xffff
    61b8:	10a00006 	beqz	a1,61d4 <OS_MemClr+0x20>
    61bc:	00000000 	nop
    61c0:	24a5ffff 	addiu	a1,a1,-1
    61c4:	24840001 	addiu	a0,a0,1
    61c8:	30a5ffff 	andi	a1,a1,0xffff
    61cc:	14a0fffc 	bnez	a1,61c0 <OS_MemClr+0xc>
    61d0:	a080ffff 	sb	zero,-1(a0)
    61d4:	03e00008 	jr	ra
    61d8:	00000000 	nop

000061dc <OS_MemCopy>:
    61dc:	30c6ffff 	andi	a2,a2,0xffff
    61e0:	10c00008 	beqz	a2,6204 <OS_MemCopy+0x28>
    61e4:	00000000 	nop
    61e8:	24a50001 	addiu	a1,a1,1
    61ec:	90a2ffff 	lbu	v0,-1(a1)
    61f0:	24c6ffff 	addiu	a2,a2,-1
    61f4:	24840001 	addiu	a0,a0,1
    61f8:	30c6ffff 	andi	a2,a2,0xffff
    61fc:	14c0fffa 	bnez	a2,61e8 <OS_MemCopy+0xc>
    6200:	a082ffff 	sb	v0,-1(a0)
    6204:	03e00008 	jr	ra
    6208:	00000000 	nop

0000620c <OS_Sched>:
    620c:	27bdffe0 	addiu	sp,sp,-32
    6210:	afbf001c 	sw	ra,28(sp)
    6214:	0c001b9b 	jal	6e6c <OS_CPU_SR_Save>
    6218:	afa00010 	sw	zero,16(sp)
    621c:	938374b0 	lbu	v1,29872(gp)
    6220:	afa20010 	sw	v0,16(sp)
    6224:	1460001f 	bnez	v1,62a4 <OS_Sched+0x98>
    6228:	93827464 	lbu	v0,29796(gp)
    622c:	1440001d 	bnez	v0,62a4 <OS_Sched+0x98>
    6230:	938274a0 	lbu	v0,29856(gp)
    6234:	3c030000 	lui	v1,0x0
    6238:	246372cc 	addiu	v1,v1,29388
    623c:	00431021 	addu	v0,v0,v1
    6240:	90420000 	lbu	v0,0(v0)
    6244:	278474a4 	addiu	a0,gp,29860
    6248:	00822021 	addu	a0,a0,v0
    624c:	90840000 	lbu	a0,0(a0)
    6250:	000210c0 	sll	v0,v0,0x3
    6254:	00831821 	addu	v1,a0,v1
    6258:	90630000 	lbu	v1,0(v1)
    625c:	00431021 	addu	v0,v0,v1
    6260:	304200ff 	andi	v0,v0,0xff
    6264:	3c030001 	lui	v1,0x1
    6268:	00022080 	sll	a0,v0,0x2
    626c:	24638d20 	addiu	v1,v1,-29408
    6270:	00831821 	addu	v1,a0,v1
    6274:	8c630000 	lw	v1,0(v1)
    6278:	93847477 	lbu	a0,29815(gp)
    627c:	a3827476 	sb	v0,29814(gp)
    6280:	10820008 	beq	a0,v0,62a4 <OS_Sched+0x98>
    6284:	af837498 	sw	v1,29848(gp)
    6288:	8c64003c 	lw	a0,60(v1)
    628c:	8f827480 	lw	v0,29824(gp)
    6290:	24840001 	addiu	a0,a0,1
    6294:	24420001 	addiu	v0,v0,1
    6298:	ac64003c 	sw	a0,60(v1)
    629c:	af827480 	sw	v0,29824(gp)
    62a0:	0000000c 	syscall
    62a4:	0c001ba2 	jal	6e88 <OS_CPU_SR_Restore>
    62a8:	8fa40010 	lw	a0,16(sp)
    62ac:	8fbf001c 	lw	ra,28(sp)
    62b0:	03e00008 	jr	ra
    62b4:	27bd0020 	addiu	sp,sp,32

000062b8 <OSEventPendMulti>:
    62b8:	27bdffc8 	addiu	sp,sp,-56
    62bc:	afb20028 	sw	s2,40(sp)
    62c0:	afb10024 	sw	s1,36(sp)
    62c4:	afb00020 	sw	s0,32(sp)
    62c8:	afbf0034 	sw	ra,52(sp)
    62cc:	afb40030 	sw	s4,48(sp)
    62d0:	afb3002c 	sw	s3,44(sp)
    62d4:	aca00000 	sw	zero,0(a1)
    62d8:	8c820000 	lw	v0,0(a0)
    62dc:	00a08821 	move	s1,a1
    62e0:	00808021 	move	s0,a0
    62e4:	8fb20048 	lw	s2,72(sp)
    62e8:	afa00010 	sw	zero,16(sp)
    62ec:	10400016 	beqz	v0,6348 <OSEventPendMulti+0x90>
    62f0:	00801821 	move	v1,a0
    62f4:	080018c2 	j	6308 <OSEventPendMulti+0x50>
    62f8:	24080002 	li	t0,2
    62fc:	8c620000 	lw	v0,0(v1)
    6300:	10400011 	beqz	v0,6348 <OSEventPendMulti+0x90>
    6304:	00000000 	nop
    6308:	90420000 	lbu	v0,0(v0)
    630c:	2442ffff 	addiu	v0,v0,-1
    6310:	0102102b 	sltu	v0,t0,v0
    6314:	1040fff9 	beqz	v0,62fc <OSEventPendMulti+0x44>
    6318:	24630004 	addiu	v1,v1,4
    631c:	24020001 	li	v0,1
    6320:	a2420000 	sb	v0,0(s2)
    6324:	00001021 	move	v0,zero
    6328:	8fbf0034 	lw	ra,52(sp)
    632c:	8fb40030 	lw	s4,48(sp)
    6330:	8fb3002c 	lw	s3,44(sp)
    6334:	8fb20028 	lw	s2,40(sp)
    6338:	8fb10024 	lw	s1,36(sp)
    633c:	8fb00020 	lw	s0,32(sp)
    6340:	03e00008 	jr	ra
    6344:	27bd0038 	addiu	sp,sp,56
    6348:	938274b0 	lbu	v0,29872(gp)
    634c:	1440000d 	bnez	v0,6384 <OSEventPendMulti+0xcc>
    6350:	93827464 	lbu	v0,29796(gp)
    6354:	10400016 	beqz	v0,63b0 <OSEventPendMulti+0xf8>
    6358:	2402000d 	li	v0,13
    635c:	a2420000 	sb	v0,0(s2)
    6360:	8fbf0034 	lw	ra,52(sp)
    6364:	8fb40030 	lw	s4,48(sp)
    6368:	8fb3002c 	lw	s3,44(sp)
    636c:	8fb20028 	lw	s2,40(sp)
    6370:	8fb10024 	lw	s1,36(sp)
    6374:	8fb00020 	lw	s0,32(sp)
    6378:	00001021 	move	v0,zero
    637c:	03e00008 	jr	ra
    6380:	27bd0038 	addiu	sp,sp,56
    6384:	24020002 	li	v0,2
    6388:	a2420000 	sb	v0,0(s2)
    638c:	8fbf0034 	lw	ra,52(sp)
    6390:	8fb40030 	lw	s4,48(sp)
    6394:	8fb3002c 	lw	s3,44(sp)
    6398:	8fb20028 	lw	s2,40(sp)
    639c:	8fb10024 	lw	s1,36(sp)
    63a0:	8fb00020 	lw	s0,32(sp)
    63a4:	00001021 	move	v0,zero
    63a8:	03e00008 	jr	ra
    63ac:	27bd0038 	addiu	sp,sp,56
    63b0:	afa6001c 	sw	a2,28(sp)
    63b4:	0c001b9b 	jal	6e6c <OS_CPU_SR_Save>
    63b8:	afa70018 	sw	a3,24(sp)
    63bc:	8e030000 	lw	v1,0(s0)
    63c0:	afa20010 	sw	v0,16(sp)
    63c4:	8fa6001c 	lw	a2,28(sp)
    63c8:	1060008e 	beqz	v1,6604 <OSEventPendMulti+0x34c>
    63cc:	8fa70018 	lw	a3,24(sp)
    63d0:	02002821 	move	a1,s0
    63d4:	00005021 	move	t2,zero
    63d8:	00009821 	move	s3,zero
    63dc:	00001021 	move	v0,zero
    63e0:	24080002 	li	t0,2
    63e4:	24090003 	li	t1,3
    63e8:	90640000 	lbu	a0,0(v1)
    63ec:	10880013 	beq	a0,t0,643c <OSEventPendMulti+0x184>
    63f0:	00000000 	nop
    63f4:	1089006e 	beq	a0,t1,65b0 <OSEventPendMulti+0x2f8>
    63f8:	24140001 	li	s4,1
    63fc:	10940060 	beq	a0,s4,6580 <OSEventPendMulti+0x2c8>
    6400:	00000000 	nop
    6404:	8fa40010 	lw	a0,16(sp)
    6408:	0c001ba2 	jal	6e88 <OS_CPU_SR_Restore>
    640c:	00000000 	nop
    6410:	ae200000 	sw	zero,0(s1)
    6414:	a2540000 	sb	s4,0(s2)
    6418:	8fbf0034 	lw	ra,52(sp)
    641c:	02601021 	move	v0,s3
    6420:	8fb40030 	lw	s4,48(sp)
    6424:	8fb3002c 	lw	s3,44(sp)
    6428:	8fb20028 	lw	s2,40(sp)
    642c:	8fb10024 	lw	s1,36(sp)
    6430:	8fb00020 	lw	s0,32(sp)
    6434:	03e00008 	jr	ra
    6438:	27bd0038 	addiu	sp,sp,56
    643c:	8c640004 	lw	a0,4(v1)
    6440:	948b0016 	lhu	t3,22(a0)
    6444:	11600066 	beqz	t3,65e0 <OSEventPendMulti+0x328>
    6448:	24cc0004 	addiu	t4,a2,4
    644c:	8c820010 	lw	v0,16(a0)
    6450:	244d0004 	addiu	t5,v0,4
    6454:	ac8d0010 	sw	t5,16(a0)
    6458:	8c420000 	lw	v0,0(v0)
    645c:	acc20000 	sw	v0,0(a2)
    6460:	8c860010 	lw	a2,16(a0)
    6464:	8c820008 	lw	v0,8(a0)
    6468:	10c20061 	beq	a2,v0,65f0 <OSEventPendMulti+0x338>
    646c:	00000000 	nop
    6470:	256bffff 	addiu	t3,t3,-1
    6474:	26730001 	addiu	s3,s3,1
    6478:	a48b0016 	sh	t3,22(a0)
    647c:	3273ffff 	andi	s3,s3,0xffff
    6480:	ae230000 	sw	v1,0(s1)
    6484:	01803021 	move	a2,t4
    6488:	26310004 	addiu	s1,s1,4
    648c:	24020001 	li	v0,1
    6490:	24a50004 	addiu	a1,a1,4
    6494:	8ca30000 	lw	v1,0(a1)
    6498:	1460ffd3 	bnez	v1,63e8 <OSEventPendMulti+0x130>
    649c:	00000000 	nop
    64a0:	14400070 	bnez	v0,6664 <OSEventPendMulti+0x3ac>
    64a4:	00000000 	nop
    64a8:	8f8274b4 	lw	v0,29876(gp)
    64ac:	2403ff80 	li	v1,-128
    64b0:	90450034 	lbu	a1,52(v0)
    64b4:	a0400035 	sb	zero,53(v0)
    64b8:	00a31825 	or	v1,a1,v1
    64bc:	01435025 	or	t2,t2,v1
    64c0:	a04a0034 	sb	t2,52(v0)
    64c4:	ac470030 	sw	a3,48(v0)
    64c8:	02002021 	move	a0,s0
    64cc:	0c0017da 	jal	5f68 <OS_EventTaskWaitMulti>
    64d0:	afa6001c 	sw	a2,28(sp)
    64d4:	8fa40010 	lw	a0,16(sp)
    64d8:	0c001ba2 	jal	6e88 <OS_CPU_SR_Restore>
    64dc:	00000000 	nop
    64e0:	0c001883 	jal	620c <OS_Sched>
    64e4:	00000000 	nop
    64e8:	0c001b9b 	jal	6e6c <OS_CPU_SR_Save>
    64ec:	00000000 	nop
    64f0:	8f8474b4 	lw	a0,29876(gp)
    64f4:	afa20010 	sw	v0,16(sp)
    64f8:	90820035 	lbu	v0,53(a0)
    64fc:	10400004 	beqz	v0,6510 <OSEventPendMulti+0x258>
    6500:	8fa6001c 	lw	a2,28(sp)
    6504:	24030002 	li	v1,2
    6508:	14430050 	bne	v0,v1,664c <OSEventPendMulti+0x394>
    650c:	02002821 	move	a1,s0
    6510:	8c89001c 	lw	t1,28(a0)
    6514:	11200065 	beqz	t1,66ac <OSEventPendMulti+0x3f4>
    6518:	24020001 	li	v0,1
    651c:	26730001 	addiu	s3,s3,1
    6520:	26300004 	addiu	s0,s1,4
    6524:	ae290000 	sw	t1,0(s1)
    6528:	ae200004 	sw	zero,4(s1)
    652c:	3273ffff 	andi	s3,s3,0xffff
    6530:	8f8374b4 	lw	v1,29876(gp)
    6534:	90620035 	lbu	v0,53(v1)
    6538:	10400039 	beqz	v0,6620 <OSEventPendMulti+0x368>
    653c:	00000000 	nop
    6540:	24030002 	li	v1,2
    6544:	14430032 	bne	v0,v1,6610 <OSEventPendMulti+0x358>
    6548:	00000000 	nop
    654c:	2402000e 	li	v0,14
    6550:	acc00000 	sw	zero,0(a2)
    6554:	a2420000 	sb	v0,0(s2)
    6558:	8f8274b4 	lw	v0,29876(gp)
    655c:	8fa40010 	lw	a0,16(sp)
    6560:	a0400034 	sb	zero,52(v0)
    6564:	a0400035 	sb	zero,53(v0)
    6568:	ac40001c 	sw	zero,28(v0)
    656c:	ac400020 	sw	zero,32(v0)
    6570:	0c001ba2 	jal	6e88 <OS_CPU_SR_Restore>
    6574:	ac400024 	sw	zero,36(v0)
    6578:	080018ca 	j	6328 <OSEventPendMulti+0x70>
    657c:	02601021 	move	v0,s3
    6580:	8c640004 	lw	a0,4(v1)
    6584:	1080001d 	beqz	a0,65fc <OSEventPendMulti+0x344>
    6588:	00000000 	nop
    658c:	26730001 	addiu	s3,s3,1
    6590:	acc40000 	sw	a0,0(a2)
    6594:	3273ffff 	andi	s3,s3,0xffff
    6598:	ac600004 	sw	zero,4(v1)
    659c:	24c60004 	addiu	a2,a2,4
    65a0:	ae230000 	sw	v1,0(s1)
    65a4:	24020001 	li	v0,1
    65a8:	08001924 	j	6490 <OSEventPendMulti+0x1d8>
    65ac:	26310004 	addiu	s1,s1,4
    65b0:	94640008 	lhu	a0,8(v1)
    65b4:	1080000c 	beqz	a0,65e8 <OSEventPendMulti+0x330>
    65b8:	2484ffff 	addiu	a0,a0,-1
    65bc:	26730001 	addiu	s3,s3,1
    65c0:	24c60004 	addiu	a2,a2,4
    65c4:	a4640008 	sh	a0,8(v1)
    65c8:	3273ffff 	andi	s3,s3,0xffff
    65cc:	ae230000 	sw	v1,0(s1)
    65d0:	24020001 	li	v0,1
    65d4:	acc0fffc 	sw	zero,-4(a2)
    65d8:	08001924 	j	6490 <OSEventPendMulti+0x1d8>
    65dc:	26310004 	addiu	s1,s1,4
    65e0:	08001924 	j	6490 <OSEventPendMulti+0x1d8>
    65e4:	354a0004 	ori	t2,t2,0x4
    65e8:	08001924 	j	6490 <OSEventPendMulti+0x1d8>
    65ec:	354a0001 	ori	t2,t2,0x1
    65f0:	8c820004 	lw	v0,4(a0)
    65f4:	0800191c 	j	6470 <OSEventPendMulti+0x1b8>
    65f8:	ac820010 	sw	v0,16(a0)
    65fc:	08001924 	j	6490 <OSEventPendMulti+0x1d8>
    6600:	354a0002 	ori	t2,t2,0x2
    6604:	00005021 	move	t2,zero
    6608:	0800192a 	j	64a8 <OSEventPendMulti+0x1f0>
    660c:	00009821 	move	s3,zero
    6610:	2402000a 	li	v0,10
    6614:	acc00000 	sw	zero,0(a2)
    6618:	08001956 	j	6558 <OSEventPendMulti+0x2a0>
    661c:	a2420000 	sb	v0,0(s2)
    6620:	91220000 	lbu	v0,0(t1)
    6624:	10400019 	beqz	v0,668c <OSEventPendMulti+0x3d4>
    6628:	2c440003 	sltiu	a0,v0,3
    662c:	14800013 	bnez	a0,667c <OSEventPendMulti+0x3c4>
    6630:	00000000 	nop
    6634:	24030003 	li	v1,3
    6638:	14430014 	bne	v0,v1,668c <OSEventPendMulti+0x3d4>
    663c:	00000000 	nop
    6640:	acc00000 	sw	zero,0(a2)
    6644:	08001956 	j	6558 <OSEventPendMulti+0x2a0>
    6648:	a2400000 	sb	zero,0(s2)
    664c:	afa6001c 	sw	a2,28(sp)
    6650:	0c00180e 	jal	6038 <OS_EventTaskRemoveMulti>
    6654:	02208021 	move	s0,s1
    6658:	00004821 	move	t1,zero
    665c:	0800194c 	j	6530 <OSEventPendMulti+0x278>
    6660:	8fa6001c 	lw	a2,28(sp)
    6664:	8fa40010 	lw	a0,16(sp)
    6668:	0c001ba2 	jal	6e88 <OS_CPU_SR_Restore>
    666c:	ae200000 	sw	zero,0(s1)
    6670:	a2400000 	sb	zero,0(s2)
    6674:	080018ca 	j	6328 <OSEventPendMulti+0x70>
    6678:	02601021 	move	v0,s3
    667c:	8c620024 	lw	v0,36(v1)
    6680:	acc20000 	sw	v0,0(a2)
    6684:	08001956 	j	6558 <OSEventPendMulti+0x2a0>
    6688:	a2400000 	sb	zero,0(s2)
    668c:	8fa40010 	lw	a0,16(sp)
    6690:	0c001ba2 	jal	6e88 <OS_CPU_SR_Restore>
    6694:	00000000 	nop
    6698:	24030001 	li	v1,1
    669c:	ae000000 	sw	zero,0(s0)
    66a0:	02601021 	move	v0,s3
    66a4:	080018ca 	j	6328 <OSEventPendMulti+0x70>
    66a8:	a2430000 	sb	v1,0(s2)
    66ac:	a0820035 	sb	v0,53(a0)
    66b0:	02002821 	move	a1,s0
    66b4:	afa6001c 	sw	a2,28(sp)
    66b8:	0c00180e 	jal	6038 <OS_EventTaskRemoveMulti>
    66bc:	02208021 	move	s0,s1
    66c0:	0800194c 	j	6530 <OSEventPendMulti+0x278>
    66c4:	8fa6001c 	lw	a2,28(sp)

000066c8 <OSSchedUnlock>:
    66c8:	9383746c 	lbu	v1,29804(gp)
    66cc:	27bdffe0 	addiu	sp,sp,-32
    66d0:	24020001 	li	v0,1
    66d4:	afbf001c 	sw	ra,28(sp)
    66d8:	afa00010 	sw	zero,16(sp)
    66dc:	10620003 	beq	v1,v0,66ec <OSSchedUnlock+0x24>
    66e0:	8fbf001c 	lw	ra,28(sp)
    66e4:	03e00008 	jr	ra
    66e8:	27bd0020 	addiu	sp,sp,32
    66ec:	0c001b9b 	jal	6e6c <OS_CPU_SR_Save>
    66f0:	00000000 	nop
    66f4:	93837464 	lbu	v1,29796(gp)
    66f8:	afa20010 	sw	v0,16(sp)
    66fc:	1060000e 	beqz	v1,6738 <OSSchedUnlock+0x70>
    6700:	2463ffff 	addiu	v1,v1,-1
    6704:	306300ff 	andi	v1,v1,0xff
    6708:	1460000b 	bnez	v1,6738 <OSSchedUnlock+0x70>
    670c:	a3837464 	sb	v1,29796(gp)
    6710:	938274b0 	lbu	v0,29872(gp)
    6714:	8fa40010 	lw	a0,16(sp)
    6718:	14400008 	bnez	v0,673c <OSSchedUnlock+0x74>
    671c:	00000000 	nop
    6720:	0c001ba2 	jal	6e88 <OS_CPU_SR_Restore>
    6724:	00000000 	nop
    6728:	0c001883 	jal	620c <OS_Sched>
    672c:	00000000 	nop
    6730:	080019b9 	j	66e4 <OSSchedUnlock+0x1c>
    6734:	8fbf001c 	lw	ra,28(sp)
    6738:	8fa40010 	lw	a0,16(sp)
    673c:	0c001ba2 	jal	6e88 <OS_CPU_SR_Restore>
    6740:	00000000 	nop
    6744:	8fbf001c 	lw	ra,28(sp)
    6748:	03e00008 	jr	ra
    674c:	27bd0020 	addiu	sp,sp,32

00006750 <OS_StrLen>:
    6750:	90820000 	lbu	v0,0(a0)
    6754:	10400009 	beqz	v0,677c <OS_StrLen+0x2c>
    6758:	00000000 	nop
    675c:	00801821 	move	v1,a0
    6760:	24630001 	addiu	v1,v1,1
    6764:	90650000 	lbu	a1,0(v1)
    6768:	00641023 	subu	v0,v1,a0
    676c:	14a0fffc 	bnez	a1,6760 <OS_StrLen+0x10>
    6770:	304200ff 	andi	v0,v0,0xff
    6774:	03e00008 	jr	ra
    6778:	00000000 	nop
    677c:	03e00008 	jr	ra
    6780:	00001021 	move	v0,zero

00006784 <OS_TaskStatStkChk>:
    6784:	27bdffd0 	addiu	sp,sp,-48
    6788:	afb10020 	sw	s1,32(sp)
    678c:	3c110001 	lui	s1,0x1
    6790:	afb30028 	sw	s3,40(sp)
    6794:	afb20024 	sw	s2,36(sp)
    6798:	afb0001c 	sw	s0,28(sp)
    679c:	afbf002c 	sw	ra,44(sp)
    67a0:	26318d20 	addiu	s1,s1,-29408
    67a4:	00008021 	move	s0,zero
    67a8:	24130001 	li	s3,1
    67ac:	24120040 	li	s2,64
    67b0:	02002021 	move	a0,s0
    67b4:	0c0010ff 	jal	43fc <OSTaskStkChk>
    67b8:	27a50010 	addiu	a1,sp,16
    67bc:	1440000d 	bnez	v0,67f4 <OS_TaskStatStkChk+0x70>
    67c0:	26100001 	addiu	s0,s0,1
    67c4:	8e220000 	lw	v0,0(s1)
    67c8:	1040000a 	beqz	v0,67f4 <OS_TaskStatStkChk+0x70>
    67cc:	00000000 	nop
    67d0:	10530008 	beq	v0,s3,67f4 <OS_TaskStatStkChk+0x70>
    67d4:	00000000 	nop
    67d8:	8c43000c 	lw	v1,12(v0)
    67dc:	8c440008 	lw	a0,8(v0)
    67e0:	00031880 	sll	v1,v1,0x2
    67e4:	00831821 	addu	v1,a0,v1
    67e8:	ac430048 	sw	v1,72(v0)
    67ec:	8fa30014 	lw	v1,20(sp)
    67f0:	ac43004c 	sw	v1,76(v0)
    67f4:	1612ffee 	bne	s0,s2,67b0 <OS_TaskStatStkChk+0x2c>
    67f8:	26310004 	addiu	s1,s1,4
    67fc:	8fbf002c 	lw	ra,44(sp)
    6800:	8fb30028 	lw	s3,40(sp)
    6804:	8fb20024 	lw	s2,36(sp)
    6808:	8fb10020 	lw	s1,32(sp)
    680c:	8fb0001c 	lw	s0,28(sp)
    6810:	03e00008 	jr	ra
    6814:	27bd0030 	addiu	sp,sp,48

00006818 <OS_TaskStat>:
    6818:	938274c8 	lbu	v0,29896(gp)
    681c:	27bdffe0 	addiu	sp,sp,-32
    6820:	afbf001c 	sw	ra,28(sp)
    6824:	afb00018 	sw	s0,24(sp)
    6828:	afa00010 	sw	zero,16(sp)
    682c:	14400006 	bnez	v0,6848 <OS_TaskStat+0x30>
    6830:	8f837488 	lw	v1,29832(gp)
    6834:	0c00125d 	jal	4974 <OSTimeDly>
    6838:	24040014 	li	a0,20
    683c:	938274c8 	lbu	v0,29896(gp)
    6840:	1040fffc 	beqz	v0,6834 <OS_TaskStat+0x1c>
    6844:	8f837488 	lw	v1,29832(gp)
    6848:	3c0251eb 	lui	v0,0x51eb
    684c:	3442851f 	ori	v0,v0,0x851f
    6850:	00620019 	multu	v1,v0
    6854:	00001010 	mfhi	v0
    6858:	00021142 	srl	v0,v0,0x5
    685c:	10400018 	beqz	v0,68c0 <OS_TaskStat+0xa8>
    6860:	af827488 	sw	v0,29832(gp)
    6864:	24100064 	li	s0,100
    6868:	0c001b9b 	jal	6e6c <OS_CPU_SR_Save>
    686c:	00000000 	nop
    6870:	afa20010 	sw	v0,16(sp)
    6874:	8f827470 	lw	v0,29808(gp)
    6878:	af807470 	sw	zero,29808(gp)
    687c:	8fa40010 	lw	a0,16(sp)
    6880:	0c001ba2 	jal	6e88 <OS_CPU_SR_Restore>
    6884:	af8274cc 	sw	v0,29900(gp)
    6888:	8f8374cc 	lw	v1,29900(gp)
    688c:	8f827488 	lw	v0,29832(gp)
    6890:	0062001b 	divu	zero,v1,v0
    6894:	004001f4 	teq	v0,zero,0x7
    6898:	00001012 	mflo	v0
    689c:	02021023 	subu	v0,s0,v0
    68a0:	0c001ab3 	jal	6acc <OSTaskStatHook>
    68a4:	a3827490 	sb	v0,29840(gp)
    68a8:	0c0019e1 	jal	6784 <OS_TaskStatStkChk>
    68ac:	00000000 	nop
    68b0:	0c00125d 	jal	4974 <OSTimeDly>
    68b4:	2404000a 	li	a0,10
    68b8:	08001a1a 	j	6868 <OS_TaskStat+0x50>
    68bc:	00000000 	nop
    68c0:	240400ff 	li	a0,255
    68c4:	0c001151 	jal	4544 <OSTaskSuspend>
    68c8:	a3807490 	sb	zero,29840(gp)
    68cc:	08001a1a 	j	6868 <OS_TaskStat+0x50>
    68d0:	24100064 	li	s0,100

000068d4 <OS_TCBInit>:
    68d4:	27bdffc8 	addiu	sp,sp,-56
    68d8:	afb50030 	sw	s5,48(sp)
    68dc:	afb4002c 	sw	s4,44(sp)
    68e0:	afb30028 	sw	s3,40(sp)
    68e4:	afb20024 	sw	s2,36(sp)
    68e8:	afb10020 	sw	s1,32(sp)
    68ec:	afb0001c 	sw	s0,28(sp)
    68f0:	309100ff 	andi	s1,a0,0xff
    68f4:	afbf0034 	sw	ra,52(sp)
    68f8:	00a0a821 	move	s5,a1
    68fc:	00c0a021 	move	s4,a2
    6900:	30f2ffff 	andi	s2,a3,0xffff
    6904:	97b30052 	lhu	s3,82(sp)
    6908:	afa00010 	sw	zero,16(sp)
    690c:	0c001b9b 	jal	6e6c <OS_CPU_SR_Save>
    6910:	00000000 	nop
    6914:	8f90748c 	lw	s0,29836(gp)
    6918:	afa20010 	sw	v0,16(sp)
    691c:	8fa40010 	lw	a0,16(sp)
    6920:	12000052 	beqz	s0,6a6c <OS_TCBInit+0x198>
    6924:	00000000 	nop
    6928:	8e020014 	lw	v0,20(s0)
    692c:	0c001ba2 	jal	6e88 <OS_CPU_SR_Restore>
    6930:	af82748c 	sw	v0,29836(gp)
    6934:	8fa6004c 	lw	a2,76(sp)
    6938:	001118c2 	srl	v1,s1,0x3
    693c:	32220007 	andi	v0,s1,0x7
    6940:	24040001 	li	a0,1
    6944:	00642804 	sllv	a1,a0,v1
    6948:	ae060004 	sw	a2,4(s0)
    694c:	00442004 	sllv	a0,a0,v0
    6950:	8fa60048 	lw	a2,72(sp)
    6954:	a2020037 	sb	v0,55(s0)
    6958:	3c020000 	lui	v0,0x0
    695c:	24427404 	addiu	v0,v0,29700
    6960:	a2030038 	sb	v1,56(s0)
    6964:	ae06000c 	sw	a2,12(s0)
    6968:	a205003a 	sb	a1,58(s0)
    696c:	ae020050 	sw	v0,80(s0)
    6970:	a2110036 	sb	s1,54(s0)
    6974:	a2040039 	sb	a0,57(s0)
    6978:	ae150000 	sw	s5,0(s0)
    697c:	02002021 	move	a0,s0
    6980:	a2000034 	sb	zero,52(s0)
    6984:	a2000035 	sb	zero,53(s0)
    6988:	ae000030 	sw	zero,48(s0)
    698c:	ae140008 	sw	s4,8(s0)
    6990:	a6130010 	sh	s3,16(s0)
    6994:	a6120012 	sh	s2,18(s0)
    6998:	a200003b 	sb	zero,59(s0)
    699c:	ae00001c 	sw	zero,28(s0)
    69a0:	ae000020 	sw	zero,32(s0)
    69a4:	ae000028 	sw	zero,40(s0)
    69a8:	ae000024 	sw	zero,36(s0)
    69ac:	ae00003c 	sw	zero,60(s0)
    69b0:	ae000044 	sw	zero,68(s0)
    69b4:	ae000040 	sw	zero,64(s0)
    69b8:	ae000048 	sw	zero,72(s0)
    69bc:	ae00004c 	sw	zero,76(s0)
    69c0:	0c001b16 	jal	6c58 <OSTCBInitHook>
    69c4:	ae000054 	sw	zero,84(s0)
    69c8:	0c001aab 	jal	6aac <OSTaskCreateHook>
    69cc:	02002021 	move	a0,s0
    69d0:	0c001b9b 	jal	6e6c <OS_CPU_SR_Save>
    69d4:	00118880 	sll	s1,s1,0x2
    69d8:	3c040001 	lui	a0,0x1
    69dc:	8f837478 	lw	v1,29816(gp)
    69e0:	24848d20 	addiu	a0,a0,-29408
    69e4:	02248821 	addu	s1,s1,a0
    69e8:	ae300000 	sw	s0,0(s1)
    69ec:	afa20010 	sw	v0,16(sp)
    69f0:	ae030014 	sw	v1,20(s0)
    69f4:	10600002 	beqz	v1,6a00 <OS_TCBInit+0x12c>
    69f8:	ae000018 	sw	zero,24(s0)
    69fc:	ac700018 	sw	s0,24(v1)
    6a00:	92020038 	lbu	v0,56(s0)
    6a04:	278374a4 	addiu	v1,gp,29860
    6a08:	00621021 	addu	v0,v1,v0
    6a0c:	90470000 	lbu	a3,0(v0)
    6a10:	938874a0 	lbu	t0,29856(gp)
    6a14:	93837491 	lbu	v1,29841(gp)
    6a18:	9206003a 	lbu	a2,58(s0)
    6a1c:	92050039 	lbu	a1,57(s0)
    6a20:	8fa40010 	lw	a0,16(sp)
    6a24:	01063025 	or	a2,t0,a2
    6a28:	00e52825 	or	a1,a3,a1
    6a2c:	24630001 	addiu	v1,v1,1
    6a30:	af907478 	sw	s0,29816(gp)
    6a34:	a0450000 	sb	a1,0(v0)
    6a38:	a38674a0 	sb	a2,29856(gp)
    6a3c:	0c001ba2 	jal	6e88 <OS_CPU_SR_Restore>
    6a40:	a3837491 	sb	v1,29841(gp)
    6a44:	8fbf0034 	lw	ra,52(sp)
    6a48:	8fb50030 	lw	s5,48(sp)
    6a4c:	8fb4002c 	lw	s4,44(sp)
    6a50:	8fb30028 	lw	s3,40(sp)
    6a54:	8fb20024 	lw	s2,36(sp)
    6a58:	8fb10020 	lw	s1,32(sp)
    6a5c:	8fb0001c 	lw	s0,28(sp)
    6a60:	00001021 	move	v0,zero
    6a64:	03e00008 	jr	ra
    6a68:	27bd0038 	addiu	sp,sp,56
    6a6c:	0c001ba2 	jal	6e88 <OS_CPU_SR_Restore>
    6a70:	00000000 	nop
    6a74:	8fbf0034 	lw	ra,52(sp)
    6a78:	8fb50030 	lw	s5,48(sp)
    6a7c:	8fb4002c 	lw	s4,44(sp)
    6a80:	8fb30028 	lw	s3,40(sp)
    6a84:	8fb20024 	lw	s2,36(sp)
    6a88:	8fb10020 	lw	s1,32(sp)
    6a8c:	8fb0001c 	lw	s0,28(sp)
    6a90:	24020042 	li	v0,66
    6a94:	03e00008 	jr	ra
    6a98:	27bd0038 	addiu	sp,sp,56

00006a9c <OSInitHookBegin>:
    6a9c:	03e00008 	jr	ra
    6aa0:	00000000 	nop

00006aa4 <OSInitHookEnd>:
    6aa4:	03e00008 	jr	ra
    6aa8:	00000000 	nop

00006aac <OSTaskCreateHook>:
    6aac:	03e00008 	jr	ra
    6ab0:	00000000 	nop

00006ab4 <OSTaskDelHook>:
    6ab4:	03e00008 	jr	ra
    6ab8:	00000000 	nop

00006abc <OSTaskReturnHook>:
    6abc:	03e00008 	jr	ra
    6ac0:	00000000 	nop

00006ac4 <OSTaskIdleHook>:
    6ac4:	03e00008 	jr	ra
    6ac8:	00000000 	nop

00006acc <OSTaskStatHook>:
    6acc:	03e00008 	jr	ra
    6ad0:	00000000 	nop

00006ad4 <OSTaskStkInit>:
    6ad4:	40036000 	mfc0	v1,c0_status
    6ad8:	23820000 	addi	v0,gp,0
    6adc:	acc2fff4 	sw	v0,-12(a2)
    6ae0:	3c022727 	lui	v0,0x2727
    6ae4:	24422727 	addiu	v0,v0,10023
    6ae8:	acc2fff0 	sw	v0,-16(a2)
    6aec:	3c022626 	lui	v0,0x2626
    6af0:	24422626 	addiu	v0,v0,9766
    6af4:	acc2ffec 	sw	v0,-20(a2)
    6af8:	3c022525 	lui	v0,0x2525
    6afc:	24422525 	addiu	v0,v0,9509
    6b00:	acc2ffe8 	sw	v0,-24(a2)
    6b04:	3c022424 	lui	v0,0x2424
    6b08:	24422424 	addiu	v0,v0,9252
    6b0c:	acc2ffe4 	sw	v0,-28(a2)
    6b10:	3c022323 	lui	v0,0x2323
    6b14:	24422323 	addiu	v0,v0,8995
    6b18:	acc2ffe0 	sw	v0,-32(a2)
    6b1c:	3c022222 	lui	v0,0x2222
    6b20:	24422222 	addiu	v0,v0,8738
    6b24:	acc2ffdc 	sw	v0,-36(a2)
    6b28:	3c022121 	lui	v0,0x2121
    6b2c:	24422121 	addiu	v0,v0,8481
    6b30:	acc2ffd8 	sw	v0,-40(a2)
    6b34:	3c022020 	lui	v0,0x2020
    6b38:	24422020 	addiu	v0,v0,8224
    6b3c:	acc2ffd4 	sw	v0,-44(a2)
    6b40:	3c021919 	lui	v0,0x1919
    6b44:	24421919 	addiu	v0,v0,6425
    6b48:	acc2ffd0 	sw	v0,-48(a2)
    6b4c:	3c021818 	lui	v0,0x1818
    6b50:	24421818 	addiu	v0,v0,6168
    6b54:	acc2ffcc 	sw	v0,-52(a2)
    6b58:	3c021717 	lui	v0,0x1717
    6b5c:	24421717 	addiu	v0,v0,5911
    6b60:	acc2ffc8 	sw	v0,-56(a2)
    6b64:	3c021616 	lui	v0,0x1616
    6b68:	24421616 	addiu	v0,v0,5654
    6b6c:	acc2ffc4 	sw	v0,-60(a2)
    6b70:	3c021515 	lui	v0,0x1515
    6b74:	24421515 	addiu	v0,v0,5397
    6b78:	acc2ffc0 	sw	v0,-64(a2)
    6b7c:	3c021414 	lui	v0,0x1414
    6b80:	24421414 	addiu	v0,v0,5140
    6b84:	acc2ffbc 	sw	v0,-68(a2)
    6b88:	3c021313 	lui	v0,0x1313
    6b8c:	24421313 	addiu	v0,v0,4883
    6b90:	acc2ffb8 	sw	v0,-72(a2)
    6b94:	3c021212 	lui	v0,0x1212
    6b98:	24421212 	addiu	v0,v0,4626
    6b9c:	acc2ffb4 	sw	v0,-76(a2)
    6ba0:	3c021111 	lui	v0,0x1111
    6ba4:	24421111 	addiu	v0,v0,4369
    6ba8:	acc2ffb0 	sw	v0,-80(a2)
    6bac:	3c021010 	lui	v0,0x1010
    6bb0:	24421010 	addiu	v0,v0,4112
    6bb4:	acc2ffac 	sw	v0,-84(a2)
    6bb8:	3c020909 	lui	v0,0x909
    6bbc:	24420909 	addiu	v0,v0,2313
    6bc0:	acc2ffa8 	sw	v0,-88(a2)
    6bc4:	3c020808 	lui	v0,0x808
    6bc8:	24420808 	addiu	v0,v0,2056
    6bcc:	acc2ffa4 	sw	v0,-92(a2)
    6bd0:	3c020707 	lui	v0,0x707
    6bd4:	24420707 	addiu	v0,v0,1799
    6bd8:	acc2ffa0 	sw	v0,-96(a2)
    6bdc:	3c020606 	lui	v0,0x606
    6be0:	24420606 	addiu	v0,v0,1542
    6be4:	acc2ff9c 	sw	v0,-100(a2)
    6be8:	3c020505 	lui	v0,0x505
    6bec:	24420505 	addiu	v0,v0,1285
    6bf0:	acc2ff98 	sw	v0,-104(a2)
    6bf4:	3c020404 	lui	v0,0x404
    6bf8:	24420404 	addiu	v0,v0,1028
    6bfc:	acc2ff94 	sw	v0,-108(a2)
    6c00:	3c020303 	lui	v0,0x303
    6c04:	24420303 	addiu	v0,v0,771
    6c08:	acc2ff90 	sw	v0,-112(a2)
    6c0c:	3c020202 	lui	v0,0x202
    6c10:	24420202 	addiu	v0,v0,514
    6c14:	acc2ff8c 	sw	v0,-116(a2)
    6c18:	3c053030 	lui	a1,0x3030
    6c1c:	3c020101 	lui	v0,0x101
    6c20:	34630401 	ori	v1,v1,0x401
    6c24:	24a53030 	addiu	a1,a1,12336
    6c28:	24420101 	addiu	v0,v0,257
    6c2c:	acc2ff88 	sw	v0,-120(a2)
    6c30:	acc4fffc 	sw	a0,-4(a2)
    6c34:	acc5fff8 	sw	a1,-8(a2)
    6c38:	acc0ff84 	sw	zero,-124(a2)
    6c3c:	acc0ff80 	sw	zero,-128(a2)
    6c40:	acc4ff7c 	sw	a0,-132(a2)
    6c44:	24c2ff74 	addiu	v0,a2,-140
    6c48:	03e00008 	jr	ra
    6c4c:	acc3ff78 	sw	v1,-136(a2)

00006c50 <OSTaskSwHook>:
    6c50:	03e00008 	jr	ra
    6c54:	00000000 	nop

00006c58 <OSTCBInitHook>:
    6c58:	03e00008 	jr	ra
    6c5c:	00000000 	nop

00006c60 <OSTimeTickHook>:
    6c60:	03e00008 	jr	ra
    6c64:	00000000 	nop

00006c68 <BSP_Interrupt_Handler>:
    6c68:	40026800 	mfc0	v0,c0_cause
    6c6c:	30420400 	andi	v0,v0,0x400
    6c70:	14400003 	bnez	v0,6c80 <BSP_Interrupt_Handler+0x18>
    6c74:	00000000 	nop
    6c78:	03e00008 	jr	ra
    6c7c:	00000000 	nop
    6c80:	08001c74 	j	71d0 <TickISR>
    6c84:	3c040005 	lui	a0,0x5

00006c88 <BSP_Exception_Handler>:
    6c88:	40026800 	mfc0	v0,c0_cause
    6c8c:	24030020 	li	v1,32
    6c90:	30440074 	andi	a0,v0,0x74
    6c94:	10830006 	beq	a0,v1,6cb0 <BSP_Exception_Handler+0x28>
    6c98:	30420078 	andi	v0,v0,0x78
    6c9c:	24030030 	li	v1,48
    6ca0:	10430003 	beq	v0,v1,6cb0 <BSP_Exception_Handler+0x28>
    6ca4:	00000000 	nop
    6ca8:	03e00008 	jr	ra
    6cac:	00000000 	nop
    6cb0:	08001b62 	j	6d88 <OSIntCtxSw>
    6cb4:	00000000 	nop

00006cb8 <OSStartHighRdy>:
    6cb8:	3c080000 	lui	t0,0x0
    6cbc:	25086c50 	addiu	t0,t0,27728
    6cc0:	0100f809 	jalr	t0
    6cc4:	00000000 	nop
    6cc8:	20080001 	addi	t0,zero,1
    6ccc:	3c090000 	lui	t1,0x0
    6cd0:	2529746c 	addiu	t1,t1,29804
    6cd4:	a1280000 	sb	t0,0(t1)
    6cd8:	3c080000 	lui	t0,0x0
    6cdc:	25087498 	addiu	t0,t0,29848
    6ce0:	8d090000 	lw	t1,0(t0)
    6ce4:	8d3d0000 	lw	sp,0(t1)
    6ce8:	8fa80004 	lw	t0,4(sp)
    6cec:	40886000 	mtc0	t0,c0_status
    6cf0:	8fa80008 	lw	t0,8(sp)
    6cf4:	40887000 	mtc0	t0,c0_epc
    6cf8:	8fa8000c 	lw	t0,12(sp)
    6cfc:	8fa90010 	lw	t1,16(sp)
    6d00:	01000013 	mtlo	t0
    6d04:	01200011 	mthi	t1
    6d08:	8fbf0088 	lw	ra,136(sp)
    6d0c:	8fbe0084 	lw	s8,132(sp)
    6d10:	8fbc0080 	lw	gp,128(sp)
    6d14:	8fbb007c 	lw	k1,124(sp)
    6d18:	8fba0078 	lw	k0,120(sp)
    6d1c:	8fb90074 	lw	t9,116(sp)
    6d20:	8fb80070 	lw	t8,112(sp)
    6d24:	8fb7006c 	lw	s7,108(sp)
    6d28:	8fb60068 	lw	s6,104(sp)
    6d2c:	8fb50064 	lw	s5,100(sp)
    6d30:	8fb40060 	lw	s4,96(sp)
    6d34:	8fb3005c 	lw	s3,92(sp)
    6d38:	8fb20058 	lw	s2,88(sp)
    6d3c:	8fb10054 	lw	s1,84(sp)
    6d40:	8fb00050 	lw	s0,80(sp)
    6d44:	8faf004c 	lw	t7,76(sp)
    6d48:	8fae0048 	lw	t6,72(sp)
    6d4c:	8fad0044 	lw	t5,68(sp)
    6d50:	8fac0040 	lw	t4,64(sp)
    6d54:	8fab003c 	lw	t3,60(sp)
    6d58:	8faa0038 	lw	t2,56(sp)
    6d5c:	8fa90034 	lw	t1,52(sp)
    6d60:	8fa80030 	lw	t0,48(sp)
    6d64:	8fa7002c 	lw	a3,44(sp)
    6d68:	8fa60028 	lw	a2,40(sp)
    6d6c:	8fa50024 	lw	a1,36(sp)
    6d70:	8fa40020 	lw	a0,32(sp)
    6d74:	8fa3001c 	lw	v1,28(sp)
    6d78:	8fa20018 	lw	v0,24(sp)
    6d7c:	8fa10014 	lw	at,20(sp)
    6d80:	03e00008 	jr	ra
    6d84:	23bd008c 	addi	sp,sp,140

00006d88 <OSIntCtxSw>:
    6d88:	3c080000 	lui	t0,0x0
    6d8c:	25086c50 	addiu	t0,t0,27728
    6d90:	0100f809 	jalr	t0
    6d94:	00000000 	nop
    6d98:	3c080000 	lui	t0,0x0
    6d9c:	25087476 	addiu	t0,t0,29814
    6da0:	91090000 	lbu	t1,0(t0)
    6da4:	3c0a0000 	lui	t2,0x0
    6da8:	254a7477 	addiu	t2,t2,29815
    6dac:	a1490000 	sb	t1,0(t2)
    6db0:	3c080000 	lui	t0,0x0
    6db4:	25087498 	addiu	t0,t0,29848
    6db8:	8d090000 	lw	t1,0(t0)
